STMicroelectronics list file postprocessor v1.01   (C)2009-2019   Wed Jun 19 15:36:22 2019
Page 1  Assembler
                                               e:\stm8s\elevator\request.asm

   1                         stm8/     
   2                         
   0  000000                                 #include "Request.inc"
   1                         
   2  000000 U                               #IFDEF   __REQUEST_ 1
   4  000000                                 #define  __REQUEST_ 1
   0  000000                                 #include "Variable.inc"
   1                         
   2  000000 U                               #IFDEF   __VARIABLE_ 1
   4                                   
   5  000000                                 #define  MAX_FLOOR 8
   6                                   
   7  000000                                 #define  REQ_NULL 0
   8  000000                                 #define  REQ_DOWN 00000001B
   9  000000                                 #define  REQ_UP 00000010B
  10  000000                                 #define  REQ_UP_DOWN 0000011B
  11                                   
  12  000000                                 #define  False 0
  13  000000                                 #define  True 1
  14                                   
  15                         
  16  000000                                 #define  TARGET_QUEUE_TOP 5FFH
  17                         
  18  000000                                 #define  STATUS_MOV 1
  19  000000                                 #define  STATUS_IDLE 0
  20  000000                                 #define  STATUS_OPEN 2
  21  000000                                 #define  STATUS_CLOSE 3
  22                                                          ; #define STATUS_DOWN 00000001B
  23                                                          ; #define STATUS_UP 00000010B
  24                                                          ; #define STATUS_STAY 0000011B
  25                         
  26  000000                                 #define  DIR_NULL 00000000B
  27  000000                                 #define  DIR_DOWN 00000001B
  28  000000                                 #define  DIR_UP 00000010B
  29                         
  30  000000                                 #define  INVALID_TARGET 0
  31                         
   0  000000                                 #include "STM8S105K4.inc"
   1                         ; STM8S105K4.inc
   2  000000 U                               #IFDEF   __INCLUDE_STM8S105K4_
   4  000000                                 #define  __INCLUDE_STM8S105K4_ 1
   0  000000                                 #include "STM8S105K.inc"
   1                         ; STM8S105K.inc
   2                         
   3                         ; Copyright (c) 2003-2012 STMicroelectronics
   4                         
   5  000000 U                               #ifdef   __STM8S105K__
   8  000000                                 #define  __STM8S105K__ 1
   9                         
  10                         ; STM8S105K
  11                         
  12                         
  13                         ; Port A
  14                         ;;;;;;;;;;;;;;;;;;;;;;;;;;;;;;;;;;;;;;;;;;;;;;;;;;;;;;;;;;;;;;
                               ;;;;;;
  15                         
  16  000000                                 EXTERN   PA_ODR.w      ; Port A data output latch 
STMicroelectronics list file postprocessor v1.01   (C)2009-2019   Wed Jun 19 15:36:22 2019
Page 2  Assembler
                                               e:\stm8s\elevator\request.asm

                                                                ;register
  17                         
  18  000000                                 EXTERN   PA_IDR.w      ; Port A input pin value 
                                                                ;register
  19                         
  20  000000                                 EXTERN   PA_DDR.w      ; Port A data direction 
                                                                ;register
  21                         
  22  000000                                 EXTERN   PA_CR1.w      ; Port A control register 1
  23                         
  24  000000                                 EXTERN   PA_CR2.w      ; Port A control register 2
  25                         
  26                         ; Port B
  27                         ;;;;;;;;;;;;;;;;;;;;;;;;;;;;;;;;;;;;;;;;;;;;;;;;;;;;;;;;;;;;;;
                               ;;;;;;
  28                         
  29  000000                                 EXTERN   PB_ODR.w      ; Port B data output latch 
                                                                ;register
  30                         
  31  000000                                 EXTERN   PB_IDR.w      ; Port B input pin value 
                                                                ;register
  32                         
  33  000000                                 EXTERN   PB_DDR.w      ; Port B data direction 
                                                                ;register
  34                         
  35  000000                                 EXTERN   PB_CR1.w      ; Port B control register 1
  36                         
  37  000000                                 EXTERN   PB_CR2.w      ; Port B control register 2
  38                         
  39                         ; Port C
  40                         ;;;;;;;;;;;;;;;;;;;;;;;;;;;;;;;;;;;;;;;;;;;;;;;;;;;;;;;;;;;;;;
                               ;;;;;;
  41                         
  42  000000                                 EXTERN   PC_ODR.w      ; Port C data output latch 
                                                                ;register
  43                         
  44  000000                                 EXTERN   PC_IDR.w      ; Port C input pin value 
                                                                ;register
  45                         
  46  000000                                 EXTERN   PC_DDR.w      ; Port C data direction 
                                                                ;register
  47                         
  48  000000                                 EXTERN   PC_CR1.w      ; Port C control register 1
  49                         
  50  000000                                 EXTERN   PC_CR2.w      ; Port C control register 2
  51                         
  52                         ; Port D
  53                         ;;;;;;;;;;;;;;;;;;;;;;;;;;;;;;;;;;;;;;;;;;;;;;;;;;;;;;;;;;;;;;
                               ;;;;;;
  54                         
  55  000000                                 EXTERN   PD_ODR.w      ; Port D data output latch 
                                                                ;register
  56                         
  57  000000                                 EXTERN   PD_IDR.w      ; Port D input pin value 
                                                                ;register
  58                         
  59  000000                                 EXTERN   PD_DDR.w      ; Port D data direction 
STMicroelectronics list file postprocessor v1.01   (C)2009-2019   Wed Jun 19 15:36:22 2019
Page 3  Assembler
                                               e:\stm8s\elevator\request.asm

                                                                ;register
  60                         
  61  000000                                 EXTERN   PD_CR1.w      ; Port D control register 1
  62                         
  63  000000                                 EXTERN   PD_CR2.w      ; Port D control register 2
  64                         
  65                         ; Port E
  66                         ;;;;;;;;;;;;;;;;;;;;;;;;;;;;;;;;;;;;;;;;;;;;;;;;;;;;;;;;;;;;;;
                               ;;;;;;
  67                         
  68  000000                                 EXTERN   PE_ODR.w      ; Port E data output latch 
                                                                ;register
  69                         
  70  000000                                 EXTERN   PE_IDR.w      ; Port E input pin value 
                                                                ;register
  71                         
  72  000000                                 EXTERN   PE_DDR.w      ; Port E data direction 
                                                                ;register
  73                         
  74  000000                                 EXTERN   PE_CR1.w      ; Port E control register 1
  75                         
  76  000000                                 EXTERN   PE_CR2.w      ; Port E control register 2
  77                         
  78                         ; Port F
  79                         ;;;;;;;;;;;;;;;;;;;;;;;;;;;;;;;;;;;;;;;;;;;;;;;;;;;;;;;;;;;;;;
                               ;;;;;;
  80                         
  81  000000                                 EXTERN   PF_ODR.w      ; Port F data output latch 
                                                                ;register
  82                         
  83  000000                                 EXTERN   PF_IDR.w      ; Port F input pin value 
                                                                ;register
  84                         
  85  000000                                 EXTERN   PF_DDR.w      ; Port F data direction 
                                                                ;register
  86                         
  87  000000                                 EXTERN   PF_CR1.w      ; Port F control register 1
  88                         
  89  000000                                 EXTERN   PF_CR2.w      ; Port F control register 2
  90                         
  91                         ; Flash
  92                         ;;;;;;;;;;;;;;;;;;;;;;;;;;;;;;;;;;;;;;;;;;;;;;;;;;;;;;;;;;;;;;
                               ;;;;;;
  93                         
  94  000000                                 EXTERN   FLASH_CR1.w   ; Flash control register 1
  95                         
  96  000000                                 EXTERN   FLASH_CR2.w   ; Flash control register 2
  97                         
  98  000000                                 EXTERN   FLASH_NCR2.w  ; Flash complementary control 
                                                                ;register 2
  99                         
 100  000000                                 EXTERN   FLASH_FPR.w   ; Flash protection register
 101                         
 102  000000                                 EXTERN   FLASH_NFPR.w  ; Flash complementary protection
                                                                ; register
 103                         
 104  000000                                 EXTERN   FLASH_IAPSR.w  ; Flash in-application 
STMicroelectronics list file postprocessor v1.01   (C)2009-2019   Wed Jun 19 15:36:22 2019
Page 4  Assembler
                                               e:\stm8s\elevator\request.asm

                                                                ;programming status register
 105                         
 106  000000                                 EXTERN   FLASH_PUKR.w  ; Flash Program memory 
                                                                ;unprotection register
 107                         
 108  000000                                 EXTERN   FLASH_DUKR.w  ; Data EEPROM unprotection 
                                                                ;register
 109                         
 110                         ; External Interrupt Control Register (ITC)
 111                         ;;;;;;;;;;;;;;;;;;;;;;;;;;;;;;;;;;;;;;;;;;;;;;;;;;;;;;;;;;;;;;
                               ;;;;;;
 112                         
 113  000000                                 EXTERN   EXTI_CR1.w    ; External interrupt control 
                                                                ;register 1
 114                         
 115  000000                                 EXTERN   EXTI_CR2.w    ; External interrupt control 
                                                                ;register 2
 116                         
 117                         ; Reset (RST)
 118                         ;;;;;;;;;;;;;;;;;;;;;;;;;;;;;;;;;;;;;;;;;;;;;;;;;;;;;;;;;;;;;;
                               ;;;;;;
 119                         
 120  000000                                 EXTERN   RST_SR.w      ; Reset status register 1
 121                         
 122                         ; Clock Control (CLK)
 123                         ;;;;;;;;;;;;;;;;;;;;;;;;;;;;;;;;;;;;;;;;;;;;;;;;;;;;;;;;;;;;;;
                               ;;;;;;
 124                         
 125  000000                                 EXTERN   CLK_ICKR.w    ; Internal clock control 
                                                                ;register
 126                         
 127  000000                                 EXTERN   CLK_ECKR.w    ; External clock control 
                                                                ;register
 128                         
 129  000000                                 EXTERN   CLK_CMSR.w    ; Clock master status register
 130                         
 131  000000                                 EXTERN   CLK_SWR.w     ; Clock master switch register
 132                         
 133  000000                                 EXTERN   CLK_SWCR.w    ; Clock switch control register
 134                         
 135  000000                                 EXTERN   CLK_CKDIVR.w  ; Clock divider register
 136                         
 137  000000                                 EXTERN   CLK_PCKENR1.w  ; Peripheral clock gating 
                                                                ;register 1
 138                         
 139  000000                                 EXTERN   CLK_CSSR.w    ; Clock security system 
                                                                ;register
 140                         
 141  000000                                 EXTERN   CLK_CCOR.w    ; Configurable clock control 
                                                                ;register
 142                         
 143  000000                                 EXTERN   CLK_PCKENR2.w  ; Peripheral clock gating 
                                                                ;register 2
 144                         
 145  000000                                 EXTERN   CLK_CANCCR.w  ; CAN clock control register
 146                         
 147  000000                                 EXTERN   CLK_HSITRIMR.w  ; HSI clock calibration trimming
STMicroelectronics list file postprocessor v1.01   (C)2009-2019   Wed Jun 19 15:36:22 2019
Page 5  Assembler
                                               e:\stm8s\elevator\request.asm

                                                                ; register
 148                         
 149  000000                                 EXTERN   CLK_SWIMCCR.w  ; SWIM clock control register
 150                         
 151                         ; Window Watchdog (WWDG)
 152                         ;;;;;;;;;;;;;;;;;;;;;;;;;;;;;;;;;;;;;;;;;;;;;;;;;;;;;;;;;;;;;;
                               ;;;;;;
 153                         
 154  000000                                 EXTERN   WWDG_CR.w     ; WWDG Control Register
 155                         
 156  000000                                 EXTERN   WWDG_WR.w     ; WWDR Window Register
 157                         
 158                         ; Independent Watchdog (IWDG)
 159                         ;;;;;;;;;;;;;;;;;;;;;;;;;;;;;;;;;;;;;;;;;;;;;;;;;;;;;;;;;;;;;;
                               ;;;;;;
 160                         
 161  000000                                 EXTERN   IWDG_KR.w     ; IWDG Key Register
 162                         
 163  000000                                 EXTERN   IWDG_PR.w     ; IWDG Prescaler Register
 164                         
 165  000000                                 EXTERN   IWDG_RLR.w    ; IWDG Reload Register
 166                         
 167                         ; Auto Wake-Up (AWU)
 168                         ;;;;;;;;;;;;;;;;;;;;;;;;;;;;;;;;;;;;;;;;;;;;;;;;;;;;;;;;;;;;;;
                               ;;;;;;
 169                         
 170  000000                                 EXTERN   AWU_CSR.w     ; AWU Control/Status Register
 171                         
 172  000000                                 EXTERN   AWU_APR.w     ; AWU asynchronous prescaler 
                                                                ;buffer register
 173                         
 174  000000                                 EXTERN   AWU_TBR.w     ; AWU Timebase selection 
                                                                ;register
 175                         
 176                         ; Beeper (BEEP)
 177                         ;;;;;;;;;;;;;;;;;;;;;;;;;;;;;;;;;;;;;;;;;;;;;;;;;;;;;;;;;;;;;;
                               ;;;;;;
 178                         
 179  000000                                 EXTERN   BEEP_CSR.w    ; BEEP Control/Status Register
 180                         
 181                         ; Serial Peripheral Interface (SPI)
 182                         ;;;;;;;;;;;;;;;;;;;;;;;;;;;;;;;;;;;;;;;;;;;;;;;;;;;;;;;;;;;;;;
                               ;;;;;;
 183                         
 184  000000                                 EXTERN   SPI_CR1.w     ; SPI Control Register 1
 185                         
 186  000000                                 EXTERN   SPI_CR2.w     ; SPI Control Register 2
 187                         
 188  000000                                 EXTERN   SPI_ICR.w     ; SPI Interrupt Control 
                                                                ;Register
 189                         
 190  000000                                 EXTERN   SPI_SR.w      ; SPI Status Register
 191                         
 192  000000                                 EXTERN   SPI_DR.w      ; SPI Data Register
 193                         
 194  000000                                 EXTERN   SPI_CRCPR.w   ; SPI CRC Polynomial Register
 195                         
STMicroelectronics list file postprocessor v1.01   (C)2009-2019   Wed Jun 19 15:36:22 2019
Page 6  Assembler
                                               e:\stm8s\elevator\request.asm

 196  000000                                 EXTERN   SPI_RXCRCR.w  ; SPI Rx CRC Register
 197                         
 198  000000                                 EXTERN   SPI_TXCRCR.w  ; SPI Tx CRC Register
 199                         
 200                         ; I2C Bus Interface (I2C)
 201                         ;;;;;;;;;;;;;;;;;;;;;;;;;;;;;;;;;;;;;;;;;;;;;;;;;;;;;;;;;;;;;;
                               ;;;;;;
 202                         
 203  000000                                 EXTERN   I2C_CR1.w     ; I2C control register 1
 204                         
 205  000000                                 EXTERN   I2C_CR2.w     ; I2C control register 2
 206                         
 207  000000                                 EXTERN   I2C_FREQR.w   ; I2C frequency register
 208                         
 209  000000                                 EXTERN   I2C_OARL.w    ; I2C Own address register low
 210                         
 211  000000                                 EXTERN   I2C_OARH.w    ; I2C Own address register high
 212                         
 213  000000                                 EXTERN   I2C_DR.w      ; I2C data register
 214                         
 215  000000                                 EXTERN   I2C_SR1.w     ; I2C status register 1
 216                         
 217  000000                                 EXTERN   I2C_SR2.w     ; I2C status register 2
 218                         
 219  000000                                 EXTERN   I2C_SR3.w     ; I2C status register 3
 220                         
 221  000000                                 EXTERN   I2C_ITR.w     ; I2C interrupt control 
                                                                ;register
 222                         
 223  000000                                 EXTERN   I2C_CCRL.w    ; I2C Clock control register 
                                                                ;low
 224                         
 225  000000                                 EXTERN   I2C_CCRH.w    ; I2C Clock control register 
                                                                ;high
 226                         
 227  000000                                 EXTERN   I2C_TRISER.w  ; I2C TRISE register
 228                         
 229  000000                                 EXTERN   I2C_PECR.w    ; I2C packet error checking 
                                                                ;register
 230                         
 231                         ; LIN Universal asynch. receiver transmitter (UART2)
 232                         ;;;;;;;;;;;;;;;;;;;;;;;;;;;;;;;;;;;;;;;;;;;;;;;;;;;;;;;;;;;;;;
                               ;;;;;;
 233                         
 234  000000                                 EXTERN   UART2_SR.w    ; UART2 Status Register
 235                         
 236  000000                                 EXTERN   UART2_DR.w    ; UART2 Data Register
 237                         
 238  000000                                 EXTERN   UART2_BRR1.w  ; UART2 Baud Rate Register 1
 239                         
 240  000000                                 EXTERN   UART2_BRR2.w  ; UART2 Baud Rate Register 2
 241                         
 242  000000                                 EXTERN   UART2_CR1.w   ; UART2 Control Register 1
 243                         
 244  000000                                 EXTERN   UART2_CR2.w   ; UART2 Control Register 2
 245                         
 246  000000                                 EXTERN   UART2_CR3.w   ; UART2 Control Register 3
STMicroelectronics list file postprocessor v1.01   (C)2009-2019   Wed Jun 19 15:36:22 2019
Page 7  Assembler
                                               e:\stm8s\elevator\request.asm

 247                         
 248  000000                                 EXTERN   UART2_CR4.w   ; UART2 Control Register 4
 249                         
 250  000000                                 EXTERN   UART2_CR5.w   ; UART2 Control Register 5
 251                         
 252  000000                                 EXTERN   UART2_CR6.w   ; UART2 Control Register 6
 253                         
 254  000000                                 EXTERN   UART2_GTR.w   ; UART2 Guard time Register
 255                         
 256  000000                                 EXTERN   UART2_PSCR.w  ; UART2 Prescaler Register
 257                         
 258                         ; 16-Bit Timer 1 (TIM1)
 259                         ;;;;;;;;;;;;;;;;;;;;;;;;;;;;;;;;;;;;;;;;;;;;;;;;;;;;;;;;;;;;;;
                               ;;;;;;
 260                         
 261  000000                                 EXTERN   TIM1_CR1.w    ; TIM1 Control register 1
 262                         
 263  000000                                 EXTERN   TIM1_CR2.w    ; TIM1 Control register 2
 264                         
 265  000000                                 EXTERN   TIM1_SMCR.w   ; TIM1 Slave Mode Control 
                                                                ;register
 266                         
 267  000000                                 EXTERN   TIM1_ETR.w    ; TIM1 external trigger 
                                                                ;register
 268                         
 269  000000                                 EXTERN   TIM1_IER.w    ; TIM1 Interrupt enable 
                                                                ;register
 270                         
 271  000000                                 EXTERN   TIM1_SR1.w    ; TIM1 Status register 1
 272                         
 273  000000                                 EXTERN   TIM1_SR2.w    ; TIM1 Status register 2
 274                         
 275  000000                                 EXTERN   TIM1_EGR.w    ; TIM1 Event Generation 
                                                                ;register
 276                         
 277  000000                                 EXTERN   TIM1_CCMR1.w  ; TIM1 Capture/Compare mode 
                                                                ;register 1
 278                         
 279  000000                                 EXTERN   TIM1_CCMR2.w  ; TIM1 Capture/Compare mode 
                                                                ;register 2
 280                         
 281  000000                                 EXTERN   TIM1_CCMR3.w  ; TIM1 Capture/Compare mode 
                                                                ;register 3
 282                         
 283  000000                                 EXTERN   TIM1_CCMR4.w  ; TIM1 Capture/Compare mode 
                                                                ;register 4
 284                         
 285  000000                                 EXTERN   TIM1_CCER1.w  ; TIM1 Capture/Compare enable 
                                                                ;register 1
 286                         
 287  000000                                 EXTERN   TIM1_CCER2.w  ; TIM1 Capture/Compare enable 
                                                                ;register 2
 288                         
 289  000000                                 EXTERN   TIM1_CNTRH.w  ; Data bits High
 290                         
 291  000000                                 EXTERN   TIM1_CNTRL.w  ; Data bits Low
 292                         
STMicroelectronics list file postprocessor v1.01   (C)2009-2019   Wed Jun 19 15:36:22 2019
Page 8  Assembler
                                               e:\stm8s\elevator\request.asm

 293  000000                                 EXTERN   TIM1_PSCRH.w  ; Data bits High
 294                         
 295  000000                                 EXTERN   TIM1_PSCRL.w  ; Data bits Low
 296                         
 297  000000                                 EXTERN   TIM1_ARRH.w   ; Data bits High
 298                         
 299  000000                                 EXTERN   TIM1_ARRL.w   ; Data bits Low
 300                         
 301  000000                                 EXTERN   TIM1_RCR.w    ; TIM1 Repetition counter 
                                                                ;register
 302                         
 303  000000                                 EXTERN   TIM1_CCR1H.w  ; Data bits High
 304                         
 305  000000                                 EXTERN   TIM1_CCR1L.w  ; Data bits Low
 306                         
 307  000000                                 EXTERN   TIM1_CCR2H.w  ; Data bits High
 308                         
 309  000000                                 EXTERN   TIM1_CCR2L.w  ; Data bits Low
 310                         
 311  000000                                 EXTERN   TIM1_CCR3H.w  ; Data bits High
 312                         
 313  000000                                 EXTERN   TIM1_CCR3L.w  ; Data bits Low
 314                         
 315  000000                                 EXTERN   TIM1_CCR4H.w  ; Data bits High
 316                         
 317  000000                                 EXTERN   TIM1_CCR4L.w  ; Data bits Low
 318                         
 319  000000                                 EXTERN   TIM1_BKR.w    ; TIM1 Break register
 320                         
 321  000000                                 EXTERN   TIM1_DTR.w    ; TIM1 Dead-time register
 322                         
 323  000000                                 EXTERN   TIM1_OISR.w   ; TIM1 Output idle state 
                                                                ;register
 324                         
 325                         ; 16-Bit Timer 2 (TIM2)
 326                         ;;;;;;;;;;;;;;;;;;;;;;;;;;;;;;;;;;;;;;;;;;;;;;;;;;;;;;;;;;;;;;
                               ;;;;;;
 327                         
 328  000000                                 EXTERN   TIM2_CR1.w    ; TIM2 Control register 1
 329                         
 330  000000                                 EXTERN   TIM2_IER.w    ; TIM2 Interrupt enable 
                                                                ;register
 331                         
 332  000000                                 EXTERN   TIM2_SR1.w    ; TIM2 Status register 1
 333                         
 334  000000                                 EXTERN   TIM2_SR2.w    ; TIM2 Status register 2
 335                         
 336  000000                                 EXTERN   TIM2_EGR.w    ; TIM2 Event Generation 
                                                                ;register
 337                         
 338  000000                                 EXTERN   TIM2_CCMR1.w  ; TIM2 Capture/Compare mode 
                                                                ;register 1
 339                         
 340  000000                                 EXTERN   TIM2_CCMR2.w  ; TIM2 Capture/Compare mode 
                                                                ;register 2
 341                         
 342  000000                                 EXTERN   TIM2_CCMR3.w  ; TIM2 Capture/Compare mode 
STMicroelectronics list file postprocessor v1.01   (C)2009-2019   Wed Jun 19 15:36:22 2019
Page 9  Assembler
                                               e:\stm8s\elevator\request.asm

                                                                ;register 3
 343                         
 344  000000                                 EXTERN   TIM2_CCER1.w  ; TIM2 Capture/Compare enable 
                                                                ;register 1
 345                         
 346  000000                                 EXTERN   TIM2_CCER2.w  ; TIM2 Capture/Compare enable 
                                                                ;register 2
 347                         
 348  000000                                 EXTERN   TIM2_CNTRH.w  ; Data bits High
 349                         
 350  000000                                 EXTERN   TIM2_CNTRL.w  ; Data bits Low
 351                         
 352  000000                                 EXTERN   TIM2_PSCR.w   ; TIM2 Prescaler register
 353                         
 354  000000                                 EXTERN   TIM2_ARRH.w   ; Data bits High
 355                         
 356  000000                                 EXTERN   TIM2_ARRL.w   ; Data bits Low
 357                         
 358  000000                                 EXTERN   TIM2_CCR1H.w  ; Data bits High
 359                         
 360  000000                                 EXTERN   TIM2_CCR1L.w  ; Data bits Low
 361                         
 362  000000                                 EXTERN   TIM2_CCR2H.w  ; Data bits High
 363                         
 364  000000                                 EXTERN   TIM2_CCR2L.w  ; Data bits Low
 365                         
 366  000000                                 EXTERN   TIM2_CCR3H.w  ; Data bits High
 367                         
 368  000000                                 EXTERN   TIM2_CCR3L.w  ; Data bits Low
 369                         
 370                         ; 16-Bit Timer 3 (TIM3)
 371                         ;;;;;;;;;;;;;;;;;;;;;;;;;;;;;;;;;;;;;;;;;;;;;;;;;;;;;;;;;;;;;;
                               ;;;;;;
 372                         
 373  000000                                 EXTERN   TIM3_CR1.w    ; TIM3 Control register 1
 374                         
 375  000000                                 EXTERN   TIM3_IER.w    ; TIM3 Interrupt enable 
                                                                ;register
 376                         
 377  000000                                 EXTERN   TIM3_SR1.w    ; TIM3 Status register 1
 378                         
 379  000000                                 EXTERN   TIM3_SR2.w    ; TIM3 Status register 2
 380                         
 381  000000                                 EXTERN   TIM3_EGR.w    ; TIM3 Event Generation 
                                                                ;register
 382                         
 383  000000                                 EXTERN   TIM3_CCMR1.w  ; TIM3 Capture/Compare mode 
                                                                ;register 1
 384                         
 385  000000                                 EXTERN   TIM3_CCMR2.w  ; TIM3 Capture/Compare mode 
                                                                ;register 2
 386                         
 387  000000                                 EXTERN   TIM3_CCER1.w  ; TIM3 Capture/Compare enable 
                                                                ;register 1
 388                         
 389  000000                                 EXTERN   TIM3_CNTRH.w  ; Data bits High
 390                         
STMicroelectronics list file postprocessor v1.01   (C)2009-2019   Wed Jun 19 15:36:22 2019
Page 10  Assembler
                                               e:\stm8s\elevator\request.asm

 391  000000                                 EXTERN   TIM3_CNTRL.w  ; Data bits Low
 392                         
 393  000000                                 EXTERN   TIM3_PSCR.w   ; TIM3 Prescaler register
 394                         
 395  000000                                 EXTERN   TIM3_ARRH.w   ; Data bits High
 396                         
 397  000000                                 EXTERN   TIM3_ARRL.w   ; Data bits Low
 398                         
 399  000000                                 EXTERN   TIM3_CCR1H.w  ; Data bits High
 400                         
 401  000000                                 EXTERN   TIM3_CCR1L.w  ; Data bits Low
 402                         
 403  000000                                 EXTERN   TIM3_CCR2H.w  ; Data bits High
 404                         
 405  000000                                 EXTERN   TIM3_CCR2L.w  ; Data bits Low
 406                         
 407                         ; 8-Bit  Timer 4 (TIM4)
 408                         ;;;;;;;;;;;;;;;;;;;;;;;;;;;;;;;;;;;;;;;;;;;;;;;;;;;;;;;;;;;;;;
                               ;;;;;;
 409                         
 410  000000                                 EXTERN   TIM4_CR1.w    ; TIM4 Control register 1
 411                         
 412  000000                                 EXTERN   TIM4_IER.w    ; TIM4 Interrupt enable 
                                                                ;register
 413                         
 414  000000                                 EXTERN   TIM4_SR.w     ; TIM4 Status register
 415                         
 416  000000                                 EXTERN   TIM4_EGR.w    ; TIM4 Event Generation 
                                                                ;register
 417                         
 418  000000                                 EXTERN   TIM4_CNTR.w   ; TIM4 Counter
 419                         
 420  000000                                 EXTERN   TIM4_PSCR.w   ; TIM4 Prescaler register
 421                         
 422  000000                                 EXTERN   TIM4_ARR.w    ; TIM4 Auto-reload register
 423                         
 424                         ; 10-Bit A/D Converter (ADC1)
 425                         ;;;;;;;;;;;;;;;;;;;;;;;;;;;;;;;;;;;;;;;;;;;;;;;;;;;;;;;;;;;;;;
                               ;;;;;;
 426                         
 427  000000                                 EXTERN   ADC_DB0RH.w   ; Data Buffer register 0 High
 428                         
 429  000000                                 EXTERN   ADC_DB0RL.w   ; Data Buffer register 0 Low
 430                         
 431  000000                                 EXTERN   ADC_DB1RH.w   ; Data Buffer register 1 High
 432                         
 433  000000                                 EXTERN   ADC_DB1RL.w   ; Data Buffer register 1 Low
 434                         
 435  000000                                 EXTERN   ADC_DB2RH.w   ; Data Buffer register 2 High
 436                         
 437  000000                                 EXTERN   ADC_DB2RL.w   ; Data Buffer register 2 Low
 438                         
 439  000000                                 EXTERN   ADC_DB3RH.w   ; Data Buffer register 3 High
 440                         
 441  000000                                 EXTERN   ADC_DB3RL.w   ; Data Buffer register 3 Low
 442                         
 443  000000                                 EXTERN   ADC_DB4RH.w   ; Data Buffer register 4 High
STMicroelectronics list file postprocessor v1.01   (C)2009-2019   Wed Jun 19 15:36:22 2019
Page 11  Assembler
                                               e:\stm8s\elevator\request.asm

 444                         
 445  000000                                 EXTERN   ADC_DB4RL.w   ; Data Buffer register 4 Low
 446                         
 447  000000                                 EXTERN   ADC_DB5RH.w   ; Data Buffer register 5 High
 448                         
 449  000000                                 EXTERN   ADC_DB5RL.w   ; Data Buffer register 5 Low
 450                         
 451  000000                                 EXTERN   ADC_DB6RH.w   ; Data Buffer register 6 High
 452                         
 453  000000                                 EXTERN   ADC_DB6RL.w   ; Data Buffer register 6 Low
 454                         
 455  000000                                 EXTERN   ADC_DB7RH.w   ; Data Buffer register 7 High
 456                         
 457  000000                                 EXTERN   ADC_DB7RL.w   ; Data Buffer register 7 Low
 458                         
 459  000000                                 EXTERN   ADC_DB8RH.w   ; Data Buffer register 8 High
 460                         
 461  000000                                 EXTERN   ADC_DB8RL.w   ; Data Buffer register 8 Low
 462                         
 463  000000                                 EXTERN   ADC_DB9RH.w   ; Data Buffer register 9 High
 464                         
 465  000000                                 EXTERN   ADC_DB9RL.w   ; Data Buffer register 9 Low
 466                         
 467  000000                                 EXTERN   ADC_CSR.w     ; ADC Control/Status Register
 468                         
 469  000000                                 EXTERN   ADC_CR1.w     ; ADC Configuration Register 1
 470                         
 471  000000                                 EXTERN   ADC_CR2.w     ; ADC Configuration Register 2
 472                         
 473  000000                                 EXTERN   ADC_CR3.w     ; ADC Configuration Register 3
 474                         
 475  000000                                 EXTERN   ADC_DRH.w     ; Data bits High
 476                         
 477  000000                                 EXTERN   ADC_DRL.w     ; Data bits Low
 478                         
 479  000000                                 EXTERN   ADC_TDRH.w    ; Schmitt trigger disable High
 480                         
 481  000000                                 EXTERN   ADC_TDRL.w    ; Schmitt trigger disable Low
 482                         
 483  000000                                 EXTERN   ADC_HTRH.w    ; High Threshold Register High
 484                         
 485  000000                                 EXTERN   ADC_HTRL.w    ; High Threshold Register Low
 486                         
 487  000000                                 EXTERN   ADC_LTRH.w    ; Low Threshold Register High
 488                         
 489  000000                                 EXTERN   ADC_LTRL.w    ; Low Threshold Register Low
 490                         
 491  000000                                 EXTERN   ADC_AWSRH.w   ; Analog Watchdog Status 
                                                                ;register High
 492                         
 493  000000                                 EXTERN   ADC_AWSRL.w   ; Analog Watchdog Status 
                                                                ;register Low
 494                         
 495  000000                                 EXTERN   ADC_AWCRH.w   ; Analog Watchdog Control 
                                                                ;register High
 496                         
 497  000000                                 EXTERN   ADC_AWCRL.w   ; Analog Watchdog Control 
STMicroelectronics list file postprocessor v1.01   (C)2009-2019   Wed Jun 19 15:36:22 2019
Page 12  Assembler
                                               e:\stm8s\elevator\request.asm

                                                                ;register Low
 498                         
 499                         ;  Global configuration register (CFG)
 500                         ;;;;;;;;;;;;;;;;;;;;;;;;;;;;;;;;;;;;;;;;;;;;;;;;;;;;;;;;;;;;;;
                               ;;;;;;
 501                         
 502  000000                                 EXTERN   CFG_GCR.w     ; CFG Global configuration 
                                                                ;register
 503                         
 504                         ; Interrupt Software Priority Register (ITC)
 505                         ;;;;;;;;;;;;;;;;;;;;;;;;;;;;;;;;;;;;;;;;;;;;;;;;;;;;;;;;;;;;;;
                               ;;;;;;
 506                         
 507  000000                                 EXTERN   ITC_SPR1.w    ; Interrupt Software priority 
                                                                ;register 1
 508                         
 509  000000                                 EXTERN   ITC_SPR2.w    ; Interrupt Software priority 
                                                                ;register 2
 510                         
 511  000000                                 EXTERN   ITC_SPR3.w    ; Interrupt Software priority 
                                                                ;register 3
 512                         
 513  000000                                 EXTERN   ITC_SPR4.w    ; Interrupt Software priority 
                                                                ;register 4
 514                         
 515  000000                                 EXTERN   ITC_SPR5.w    ; Interrupt Software priority 
                                                                ;register 5
 516                         
 517  000000                                 EXTERN   ITC_SPR6.w    ; Interrupt Software priority 
                                                                ;register 6
 518                         
 519  000000                                 EXTERN   ITC_SPR7.w    ; Interrupt Software priority 
                                                                ;register 7
 520                         
 521  000000                                 #endif                 ; __STM8S105K__
<END_OF_INCLUSION>
   6                                   
   7  000000                                 #ENDIF   
   8                         
   9                         
<END_OF_INCLUSION>
  33                         
  34                         
  35  000000                                 #define  MOVING_TIME 2
  36  000000                                 #define  CLOSE_TIME 10
  37  000000                                 #define  OPEN_TIME 10
  38                                                          ; #define BEEP_TIME 3
  39                         
  40                         
  41  000000                                 #ENDIF   
  42                                   
  43                         
  44  000000                                 extern   B_FLOOR.b
  45  000000                                 extern   B_STATUS.b
  46  000000                                 extern   B_DIRECTION.b
  47                         
  48  000000                                 extern   W_CUR_TARGET_PTR.b
  49  000000                                 extern   W_NEW_PTR.b
  50                         
STMicroelectronics list file postprocessor v1.01   (C)2009-2019   Wed Jun 19 15:36:22 2019
Page 13  Assembler
                                               e:\stm8s\elevator\request.asm

  51  000000                                 extern   FLOOR_TOP.w
  52  000000                                 extern   FLOOR_BOTTOM.w
  53                                   
  54  000000                                 extern   TARGET_QUEUE_BOTTOM.w
  55                         
  56                         
  57  000000                                 extern   TEMP_TARGET_FLOOR_BUTTOM.b
  58  000000                                 extern   TEMP_TARGET_FLOOR_TOP.b
  59                         
  60                                   
  61                                   
  62  000000                                 extern   W_TIMER3_HANDLER.b
  63  000000                                 extern   B_TIMER3_INT_COUNTER.b
<END_OF_INCLUSION>
   6                         
   7  000000                                 #ENDIF   
   8                         
   9                                                          ; void PutNewTarget(const A 
                                                                ;opa_type, const X floor){}
  10  000000                                 extern   PutNewTarget.w
  11                         
  12                                                          ; A CheckQueue(const X 
                                                                ;target_floor){}
  13  000000                                 extern   CheckQueue.w
  14                         
  15  000000                                 extern   IsQueueFull.w
  16  000000                                 extern   IsQueueEmpty.w
  17                         
  18                                                          ; X IncRotatePointer(X pointer)
  19  000000                                 extern   IncRotatePointer.w
  20                                                          ; X DecRotatePointer(X pointer)
  21  000000                                 extern   DecRotatePointer
  22                         
  23                         
  24  000000                                 extern   GetNextTarget.w
  25                         
  26                                   
  27  000000                                 extern   GoUp.w
  28  000000                                 extern   GoDown.w
  29  000000                                 extern   GoIdle.w
  30  000000                                 extern   OpenDoor.w
  31  000000                                 extern   CloseDoor.w
  32                         
  33  000000                                 extern   LED_Refresh.w
<END_OF_INCLUSION>
   4                                   
   5                                   segment  'rom'
   6                         
   7  008724                                 INTEL    
   8                         
   9                         
  10                         ; ---------------------------------
  11                         ; name  : void Request(const A opa_type, const X src_floor)
  12                         ; params: A: operation type => {REQ_NULL, REQ_DOWN, REQ_UP, 
                               ;REQ_UP_DOWN}
  13                         ;         X: source floor   => {floor=0~7}
  14                         ;
  15                         ; return: 
  16                         ; =================================
STMicroelectronics list file postprocessor v1.01   (C)2009-2019   Wed Jun 19 15:36:22 2019
Page 14  Assembler
                                               e:\stm8s\elevator\request.asm

  17                         ; void Request(const A opa_type, const X src_floor)
  18                         ; {
  19                         ;	if(CheckQueue(A, X) == False){
  20                         ; 		PutNewTarget()
  21                         ;	}
  22                         ;
  23                         ;	
  24                         ; }
  25                         ; ---------------------------------
  26                         .Request.w  
  27  008724   8A                            push     cc
  28  008725   88                            push     A
  29  008726   89                            pushw    X
  30                         Request_start:  
  31                                   
  32  008727   88                            push     A
  33  008728   CD86CF                        call     IsQueueFull
  34  00872B   A101                          cp       A, #1
  35  00872D   84                            pop      A
  36  00872E   2719                          jreq     Request_exit
  37                         
  38                                                          ; if(IsQueueFull() == False){
  39                                                          ; 	request_floor_addr = 
                                                                ;&bottom_floor + request_floor -
                                                                ; 1
  40                                                          ; 	Y = request_floor_addr
  41                         
  42  008730   5A                            decw     X
  43  008731   89                            pushw    X
  44  008732   90AE0100                      ldw      Y, #FLOOR_BOTTOM
  45  008736   72F901                        addw     Y, (1,SP)
  46  008739   85                            popw     X
  47                         
  48                                                          ; 	*request_floor_addr = 
                                                                ;opa_type | *request_floor_addr
  49  00873A   90FA                          or       A, (Y)
  50  00873C   90F7                          ld       (Y), A
  51                         
  52  00873E   B60A                          ld       A, B_STATUS
  53  008740   A100                          cp       A, #0
  54  008742   2605                          jrne     Request_exit
  55                         Request_launch:  
  56  008744   85                            popw     X
  57  008745   CD874D                        call     CheckLaunch
  58  008748   89                            pushw    X
  59                         Request_exit:  
  60  008749   85                            popw     X
  61  00874A   84                            pop      A
  62  00874B   86                            pop      cc
  63  00874C   81                            ret      
  64                         
  65                         
  66                         ; ---------------------------------
  67                         ; name  : void CheckLaunch(const X src_floor)
  68                         ; params: X: request floor
  69                         ;
  70                         ; return: 
STMicroelectronics list file postprocessor v1.01   (C)2009-2019   Wed Jun 19 15:36:22 2019
Page 15  Assembler
                                               e:\stm8s\elevator\request.asm

  71                         ; =================================
  72                         ; void CheckLaunch(const X src_floor)
  73                         ; {	
  74                         ; }
  75                         ; ---------------------------------
  76                         .CheckLaunch.w  
  77  00874D   8A                            push     cc
  78  00874E   88                            push     A
  79  00874F   9089                          pushw    Y
  80  008751   89                            pushw    X
  81                         CheckLaunch_start:  
  82  008752   905F                          clrw     Y
  83  008754   B609                          ld       A, B_FLOOR
  84  008756   9097                          ld       YL, A
  85  008758   9089                          pushw    Y
  86  00875A   1301                          cpw      X, (1,SP)
  87  00875C   9085                          popw     Y
  88  00875E   2605                          jrne     CheckLaunch_direction
  89  008760   CD895F                        call     OpenDoor
  90  008763   2017                          jra      CheckLaunch_exit
  91                         CheckLaunch_direction:  
  92  008765   2B09                          jrmi     CheckLaunch_godown
  93                         CheckLaunch_goup:  
  94  008767   CD8932                        call     GoUp
  95  00876A   3502000B                      mov      B_DIRECTION, #00000010B
  96  00876E   2007                          jra      CheckLaunch_putnew_exit
  97                         CheckLaunch_godown:  
  98  008770   CD8941                        call     GoDown
  99  008773   3501000B                      mov      B_DIRECTION, #00000001B
 100                         CheckLaunch_putnew_exit:  
 101  008777   85                            popw     X
 102                         
 103  008778   CD867A                        call     PutNewTarget
 104  00877B   89                            pushw    X
 105                         CheckLaunch_exit:  
 106  00877C   85                            popw     X
 107  00877D   9085                          popw     Y
 108  00877F   84                            pop      A
 109  008780   86                            pop      cc
 110  008781   81                            ret      
 111                         
 112                         ; ---------------------------------
 113                         ; name  : void GoCurrentTarget()
 114                         ; params: X: request floor
 115                         ;
 116                         ; return: 
 117                         ; =================================
 118                         ; void GoCurrentTarget()
 119                         ; {	
 120                         ; }
 121                         ; ---------------------------------
 122                         .GoCurrentTarget.w  
 123  008782   8A                            push     cc
 124  008783   88                            push     A
 125  008784   9089                          pushw    Y
 126  008786   89                            pushw    X
 127                         GoCurrentTarget_start:  
STMicroelectronics list file postprocessor v1.01   (C)2009-2019   Wed Jun 19 15:36:22 2019
Page 16  Assembler
                                               e:\stm8s\elevator\request.asm

 128  008787   BE0C                          ldw      X, W_CUR_TARGET_PTR
 129  008789   F6                            ld       A, (X)
 130  00878A   A100                          cp       A, #0
 131  00878C   260A                          jrne     GoCurrentTarget_determine_dire     
 132                         GoCurrentTarget_is_target_empt  :        
 133  00878E   CD868C                        call     GetNextTarget
 134  008791   A100                          cp       A, #0
 135  008793   2715                          jreq     GoCurrentTarget_goidle_determi 
 136  008795   CD87C9                        call     GoNextTarget
 137                         GoCurrentTarget_determine_dire  :        
 138  008798   5F                            clrw     X
 139  008799   97                            ld       XL, A
 140                         
 141  00879A   905F                          clrw     Y
 142  00879C   B609                          ld       A, B_FLOOR
 143  00879E   9097                          ld       YL, A
 144  0087A0   9089                          pushw    Y
 145  0087A2   1301                          cpw      X, (1,SP)
 146  0087A4   9085                          popw     Y
 147                         ; 	; jrne GoCurrentTarget_direction
 148                         ; 	; call OpenDoor
 149                         ; 	; jra GoCurrentTarget_exit
 150                         ; GoCurrentTarget_direction:
 151  0087A6   2B14                          jrmi     GoCurrentTarget_godown
 152  0087A8   2009                          jra      GoCurrentTarget_goup
 153                         GoCurrentTarget_goidle_determi  :        
 154  0087AA   CD8950                        call     GoIdle
 155  0087AD   3500000B                      mov      B_DIRECTION, #00000000B
 156  0087B1   2010                          jra      GoCurrentTarget_exit
 157                         GoCurrentTarget_goup:  
 158  0087B3   CD8932                        call     GoUp
 159  0087B6   3502000B                      mov      B_DIRECTION, #00000010B
 160  0087BA   2007                          jra      GoCurrentTarget_exit
 161                         GoCurrentTarget_godown:  
 162  0087BC   CD8941                        call     GoDown
 163  0087BF   3501000B                      mov      B_DIRECTION, #00000001B
 164                         GoCurrentTarget_exit:  
 165  0087C3   85                            popw     X
 166  0087C4   9085                          popw     Y
 167  0087C6   84                            pop      A
 168  0087C7   86                            pop      cc
 169  0087C8   81                            ret      
 170                         
 171                         
 172                         ; ---------------------------------
 173                         ; name  : void GoNextTarget()
 174                         ; params: 
 175                         ;
 176                         ; return: 
 177                         ; =================================
 178                         ; void GoNextTarget()
 179                         ; {	
 180                         ; }
 181                         ; ---------------------------------
 182                         .GoNextTarget.w  
 183  0087C9   8A                            push     cc
 184  0087CA   88                            push     A
STMicroelectronics list file postprocessor v1.01   (C)2009-2019   Wed Jun 19 15:36:22 2019
Page 17  Assembler
                                               e:\stm8s\elevator\request.asm

 185  0087CB   89                            pushw    X
 186                         GoNextTarget_start:  
 187                                   
 188  0087CC   BE0C                          ldw      X, W_CUR_TARGET_PTR
 189  0087CE   7F                            clr      (X)
 190                         GoNextTarget_loop:  
 191  0087CF   CD870C                        call     IncRotatePointer
 192  0087D2   B30E                          cpw      X, W_NEW_PTR
 193  0087D4   2705                          jreq     GoNextTarget_inc_ptr
 194  0087D6   F6                            ld       A, (X)
 195  0087D7   A100                          cp       A, #0
 196  0087D9   27F4                          jreq     GoNextTarget_loop
 197                         GoNextTarget_inc_ptr:  
 198  0087DB   BF0C                          ldw      W_CUR_TARGET_PTR, X
 199                         GoNextTarget_exit:  
 200  0087DD   85                            popw     X
 201  0087DE   84                            pop      A
 202  0087DF   86                            pop      cc
 203  0087E0   81                            ret      
 204                         
 205                         
 206                         
 207                         
 208                         
 209                         
 210                         ; ; ---------------------------------
 211                         ; ; name  : void PutAllTempTarget()
 212                         ; ; params: 
 213                         ; ;
 214                         ; ; return: 
 215                         ; ; =================================
 216                         ; ; void PutAllTempTarget()
 217                         ; ; {
 218                         ; ; }
 219                         ; ; ---------------------------------
 220                         ; .PutAllTempTarget.w
 221                         ; 	push cc
 222                         ; 	push A
 223                         ; 	pushw X
 224                         ; PutAllTempTarget_start:
 225                         ; 	ldw X, #MAX_FLOOR
 226                                   
 227                         ; PutAllTempTarget_loop:
 228                         ; 	decw X
 229                         ;     jreq PutAllTempTarget_exit
 230                         ; 	ld A, (TEMP_TARGET_FLOOR_BUTTOM,X)
 231                         ; 	cp A, #True
 232                         ; 	jrne PutAllTempTarget_next
 233                         ; PutAllTempTarget_put:
 234                         ; 	incw X
 235                         ; 	call PutTargetFloor
 236                         ; 	decw X
 237                         ; PutAllTempTarget_next:
 238                         ; 	jrne PutAllTempTarget_loop
 239                         ; PutAllTempTarget_exit:
 240                         ; 	popw X
 241                         ; 	pop A
STMicroelectronics list file postprocessor v1.01   (C)2009-2019   Wed Jun 19 15:36:22 2019
Page 18  Assembler
                                               e:\stm8s\elevator\request.asm

 242                         ; 	pop cc
 243                         ;     ret
 244                         
 245                         
 246                         ; ; ---------------------------------
 247                         ; ; name  : A CheckTempTarget(const X floor)
 248                         ; ; params: 
 249                         ; ;
 250                         ; ; return: A
 251                         ; ; =================================
 252                         ; ; A CheckTempTarget()
 253                         ; ; {
 254                         ; ; }
 255                         ; ; ---------------------------------
 256                         ; .CheckTempTarget.w
 257                         ; 	push cc
 258                         ; 	pushw X
 259                         ; CheckTempTarget_start:
 260                                   
 261                         
 262                         ; CheckTempTarget_True:
 263                         
 264                         ; CheckTempTarget_False:
 265                         
 266                         ; CheckTempTarget_exit:
 267                         ; 	popw X
 268                         ; 	pop cc
 269                         ;     ret
 270                         
 271                         ; ; ---------------------------------
 272                         ; ; name  : void SetTempTarget(const X floor)
 273                         ; ; params: 
 274                         ; ;
 275                         ; ; return: 
 276                         ; ; =================================
 277                         ; ; void SetTempTarget(const X floor)
 278                         ; ; {
 279                         ; ; }
 280                         ; ; ---------------------------------
 281                         ; .SetTempTarget.w
 282                         ; 	push cc
 283                         ; 	push A
 284                         ; PutAllTarget_start:
 285                         ;     decw X
 286                         ; 	; ld A, #TEMP_TARGET_FLOOR_BUTTOM
 287                         ; 	ld A, #True
 288                         ; 	ld (TEMP_TARGET_FLOOR_BUTTOM,X), A
 289                         ;     incw X
 290                         ; PutAllTarget_exit:
 291                         ; 	pop A
 292                         ; 	pop cc
 293                         ;     ret
 294                         
 295                         
 296                         ; ; ---------------------------------
 297                         ; ; name  : void ClearTempTarget()
 298                         ; ; params: 
STMicroelectronics list file postprocessor v1.01   (C)2009-2019   Wed Jun 19 15:36:22 2019
Page 19  Assembler
                                               e:\stm8s\elevator\request.asm

 299                         ; ;
 300                         ; ; return: 
 301                         ; ; =================================
 302                         ; ; void ClearTempTarget()
 303                         ; ; {
 304                         ; ; }
 305                         ; ; ---------------------------------
 306                         ; .ClearTempTarget.w
 307                         ; 	push cc
 308                         ; 	pushw X
 309                         ; ClearTempTarget_start:
 310                         ; 	ldw X, #TEMP_TARGET_FLOOR_BUTTOM
 311                         ; ClearTempTarget_loop:
 312                         ; 	clr (X)
 313                         ; 	incw X
 314                         ; 	cpw X, #TEMP_TARGET_FLOOR_TOP
 315                         ; 	jrne ClearTempTarget_loop
 316                         ; ClearTempTarget_exit:
 317                         ; 	popw X
 318                         ; 	pop cc
 319                         ;     ret
 320                         
 321                         
 322                         
 323                         
 324                         
 325                         
 326                         ; ---------------------------------
 327                         ; name  : void PutTargetFloor(const X target_floor)
 328                         ; params: X: target_floor     => {floor=0~7}
 329                         ;
 330                         ; return: 
 331                         ; =================================
 332                         ; void PutTargetFloor(const A opa_type, const X floor)
 333                         ; {
 334                         ;	if(IsQueueFull() == False || IsQueueEmpty() == True){
 335                         ;		PutNewTarget(x);
 336                         ;	}
 337                         ; }
 338                         ; ---------------------------------
 339                         .PutTargetFloor.w  
 340  0087E1   8A                            push     cc
 341                         PutTargetFloor_start:  
 342  0087E2   CD86CF                        call     IsQueueFull
 343  0087E5   A101                          cp       A, #1
 344  0087E7   2711                          jreq     PutTargetFloor_exit
 345                         
 346  0087E9   CD86F1                        call     IsQueueEmpty
 347  0087EC   A101                          cp       A, #1
 348  0087EE   2707                          jreq     PutTargetFloor_put
 349                         
 350                                                          ; CheckQueue(X)
 351  0087F0   CD86AA                        call     CheckQueue
 352  0087F3   A101                          cp       A, #1
 353  0087F5   2703                          jreq     PutTargetFloor_exit
 354                         PutTargetFloor_put:  
 355  0087F7   CD867A                        call     PutNewTarget
STMicroelectronics list file postprocessor v1.01   (C)2009-2019   Wed Jun 19 15:36:22 2019
Page 20  Assembler
                                               e:\stm8s\elevator\request.asm

 356                         PutTargetFloor_exit:  
 357  0087FA   86                            pop      cc
 358  0087FB   81                            ret      
 359                         
 360                         
 361                         
 362                         
 363                         ; ---------------------------------
 364                         ; name  : A GetFloorReq(const X floor)
 365                         ; params: X: floor 				=> {floor=0~MAX_FLOOR}
 366                         ;
 367                         ; return: A: request operation 	=> {REQ_NULL, REQ_DOWN, 
                               ;REQ_UP, REQ_UP_DOWN}
 368                         ; =================================
 369                         ; A GetFloorReq(const X floor)
 370                         ; {
 371                         ; 	request_floor_addr = &bottom_floor + request_floor - 1;
 372                         ; 	return *request_floor_addr;
 373                         ; }
 374                         ; ---------------------------------
 375                         .GetFloorReq.w  
 376  0087FC   8A                            push     cc
 377  0087FD   89                            pushw    X
 378                         GetFloorReq_start:  
 379  0087FE   5A                            decw     X
 380  0087FF   D60100                        ld       A, (FLOOR_BOTTOM,X)
 381                         GetFloorReq_exit:  
 382  008802   85                            popw     X
 383  008803   86                            pop      cc
 384  008804   81                            ret      
 385                         
 386                         
 387                         ; ---------------------------------	!!!! error prone !!!!! - <
                               ; it may change floor request, clear when match >
 388                         ; name  : A CheckCurrentFloorReq()
 389                         ; params: 
 390                         ;
 391                         ; return: A: check if request of current floor matchs 
                               ;direction	=> {True, False}
 392                         ; =================================
 393                         ; A CheckCurrentFloorReq()
 394                         ; {
 395                         ; }
 396                         ; --------------------------------- 
 397                         .CheckCurrentFloorReq.w  
 398  008805   8A                            push     cc
 399  008806   89                            pushw    X
 400                         CheckCurrentFloorReq_start:  
 401  008807   B609                          ld       A, B_FLOOR
 402  008809   5F                            clrw     X
 403  00880A   97                            ld       XL, A
 404  00880B   CD87FC                        call     GetFloorReq
 405  00880E   88                            push     A
 406  00880F   B40B                          and      A, B_DIRECTION
 407  008811   84                            pop      A
 408  008812   2710                          jreq     CheckCurrentFloorReq_False
 409                         CheckCurrentFloorReq_True:  
STMicroelectronics list file postprocessor v1.01   (C)2009-2019   Wed Jun 19 15:36:22 2019
Page 21  Assembler
                                               e:\stm8s\elevator\request.asm

 410  008814   88                            push     A
 411  008815   B60B                          ld       A, B_DIRECTION
 412  008817   A8FF                          xor      A, #0FFH
 413  008819   1401                          and      A, (1,SP)
 414  00881B   5A                            decw     X
 415  00881C   D70100                        ld       (FLOOR_BOTTOM,X), A
 416  00881F   84                            pop      A
 417  008820   A601                          ld       A, #1
 418  008822   2002                          jra      CheckCurrentFloorReq_exit
 419                         CheckCurrentFloorReq_False:  
 420  008824   A600                          ld       A, #0
 421                         CheckCurrentFloorReq_exit:  
 422  008826   85                            popw     X
 423  008827   86                            pop      cc
 424  008828   81                            ret      
 425                         
 426                         
 427                         ; ---------------------------------	!!!! error prone !!!!! - <
                               ; it may change floor request, clear when match >
 428                         ; name  : A CheckCurrentFloorTarget()
 429                         ; params: 
 430                         ;
 431                         ; return: A: check if there are targets matching current 
                               ;direction. mask when match => {True, False}
 432                         ; =================================
 433                         ; A CheckCurrentFloorTarget()
 434                         ; {
 435                         ; }
 436                         ; --------------------------------- 
 437                         .CheckCurrentFloorTarget.w  
 438  008829   8A                            push     cc
 439  00882A   89                            pushw    X
 440                         CheckCurrentFloorTarget_start:  
 441  00882B   BE0C                          ldw      X, W_CUR_TARGET_PTR
 442  00882D   B609                          ld       A, B_FLOOR
 443  00882F   F1                            cp       A, (X)
 444  008830   2711                          jreq     CheckCurrentFloorTarget_True_o   
 445                         CheckCurrentFloorTarget_loop:  
 446  008832   F1                            cp       A, (X)
 447  008833   270B                          jreq     CheckCurrentFloorTarget_True
 448  008835   CD870C                        call     IncRotatePointer
 449  008838   B30E                          cpw      X, W_NEW_PTR
 450  00883A   26F6                          jrne     CheckCurrentFloorTarget_loop
 451                         CheckCurrentFloorTarget_False:  
 452  00883C   A600                          ld       A, #0
 453  00883E   2005                          jra      CheckCurrentFloorTarget_exit
 454                         CheckCurrentFloorTarget_True:  
 455  008840   A600                          ld       A, #0
 456  008842   F7                            ld       (X), A
 457                         CheckCurrentFloorTarget_True_o  :        
 458  008843   A601                          ld       A, #1
 459                         CheckCurrentFloorTarget_exit:  
 460  008845   85                            popw     X
 461  008846   86                            pop      cc
 462  008847   81                            ret      
 463                         
 464                         
STMicroelectronics list file postprocessor v1.01   (C)2009-2019   Wed Jun 19 15:36:22 2019
Page 22  Assembler
                                               e:\stm8s\elevator\request.asm

 465                         ; ---------------------------------
 466                         ; name  : A IsNextTargetDirection()
 467                         ; params: 
 468                         ;
 469                         ; return: A: check if next target floor is in current 
                               ;direction => {True, False}
 470                         ; =================================
 471                         ; A IsNextTargetDirection()
 472                         ; {
 473                         ; }
 474                         ; --------------------------------- 
 475                         .IsNextTargetDirection.w  
 476  008848   8A                            push     cc
 477  008849   89                            pushw    X
 478                         IsNextTargetDirection_start:  
 479                         
 480  00884A   CD868C                        call     GetNextTarget
 481  00884D   5F                            clrw     X
 482  00884E   97                            ld       XL, A
 483                                                          ; X <= Next Target
 484                         
 485  00884F   92C60C                        ld       A, [W_CUR_TARGET_PTR.w]
 486  008852   88                            push     A
 487  008853   4B00                          push     #00
 488                         
 489  008855   B60B                          ld       A, B_DIRECTION
 490  008857   A102                          cp       A, #00000010B
 491  008859   2704                          jreq     IsNextTargetDirection_up
 492                         IsNextTargetDirection_down:  
 493  00885B   1301                          cpw      X, (1,SP)
 494  00885D   2B04                          jrmi     IsNextTargetDirection_True
 495                         IsNextTargetDirection_up:  
 496  00885F   1301                          cpw      X, (1,SP)
 497  008861   2B04                          jrmi     IsNextTargetDirection_False
 498                                   
 499                         IsNextTargetDirection_True:  
 500  008863   A601                          ld       A, #1
 501  008865   2002                          jra      IsNextTargetDirection_exit
 502                         IsNextTargetDirection_False:  
 503  008867   A600                          ld       A, #0
 504                         IsNextTargetDirection_exit:  
 505  008869   85                            popw     X
 506                         
 507  00886A   85                            popw     X
 508  00886B   86                            pop      cc
 509  00886C   81                            ret      
 510                         
 511                         
 512                         
 513                         
 514                         ; ---------------------------------
 515                         ; name  : X GetNextDirTargetPointer()
 516                         ; params: 
 517                         ;
 518                         ; return: X: next same direction target pointer
 519                         ; =================================
 520                         ; X GetNextDirTargetPointer()
STMicroelectronics list file postprocessor v1.01   (C)2009-2019   Wed Jun 19 15:36:22 2019
Page 23  Assembler
                                               e:\stm8s\elevator\request.asm

 521                         ; {
 522                         ; }
 523                         ; --------------------------------- 
 524                         .GetNextDirTargetPointer.w  
 525  00886D   8A                            push     cc
 526  00886E   88                            push     A
 527                         GetNextDirTargetPointer_start:  
 528                                                          ; call GetNextTarget
 529                                                          ; X <= Next Target
 530  00886F   B609                          ld       A, B_FLOOR
 531  008871   88                            push     A
 532  008872   4B00                          push     #00
 533                         
 534  008874   BE0C                          ldw      X, W_CUR_TARGET_PTR
 535                         
 536                         
 537  008876   B60B                          ld       A, B_DIRECTION
 538  008878   A101                          cp       A, #00000001B
 539  00887A   2710                          jreq     GetNextDirTargetPointer_down_l   
 540                                   
 541                         GetNextDirTargetPointer_up_loo  :        
 542  00887C   CD870C                        call     IncRotatePointer
 543  00887F   B30E                          cpw      X, W_NEW_PTR
 544  008881   2719                          jreq     GetNextDirTargetPointer_invali 
 545  008883   89                            pushw    X
 546  008884   FE                            ldw      X, (X)
 547  008885   1301                          cpw      X, (1,SP)
 548  008887   85                            popw     X
 549  008888   2BF2                          jrmi     GetNextDirTargetPointer_up_loo 
 550  00888A   2013                          jra      GetNextDirTargetPointer_target
 551                         
 552                         
 553                         GetNextDirTargetPointer_down_l  :        
 554  00888C   CD870C                        call     IncRotatePointer
 555  00888F   B30E                          cpw      X, W_NEW_PTR
 556  008891   2709                          jreq     GetNextDirTargetPointer_invali 
 557  008893   89                            pushw    X
 558  008894   FE                            ldw      X, (X)
 559  008895   1301                          cpw      X, (1,SP)
 560  008897   85                            popw     X
 561  008898   2AF2                          jrpl     GetNextDirTargetPointer_down_l   
 562  00889A   2003                          jra      GetNextDirTargetPointer_target
 563                         GetNextDirTargetPointer_invali  :        
 564  00889C   AE0000                        ldw      X, #0
 565                         GetNextDirTargetPointer_target:  
 566                         
 567                         GetNextDirTargetPointer_exit:  
 568                                                          ; pop temp word
 569  00889F   84                            pop      A
 570  0088A0   84                            pop      A
 571                         
 572  0088A1   84                            pop      A
 573  0088A2   86                            pop      cc
 574  0088A3   81                            ret      
 575                         
 576                         
 577                         
STMicroelectronics list file postprocessor v1.01   (C)2009-2019   Wed Jun 19 15:36:22 2019
Page 24  Assembler
                                               e:\stm8s\elevator\request.asm

 578                         
 579                         
 580                         
 581                         
 582                         
 583                         ; ; ---------------------------------
 584                         ; ; name  : A IsTargetFloor(const X floor)
 585                         ; ; params: 
 586                         ; ;
 587                         ; ; return: A: if current is a target => {True, False}
 588                         ; ; =================================
 589                         ; ; A IsTargetFloor(const X floor)
 590                         ; ; {
 591                         ; ; }
 592                         ; ; --------------------------------- 
 593                         ; .IsTargetFloor.w
 594                         ; 	push cc
 595                         ; 	pushw X
 596                         ; IsTargetFloor_start:
 597                         ; 	ldw X, W_CUR_TARGET_PTR
 598                         ; 	ld A, B_FLOOR
 599                         
 600                         ; IsTargetFloor_loop:
 601                         ; 	cp A, (X)
 602                         ; 	jreq IsTargetFloor_True
 603                         ; 	call IncRotatePointer
 604                         ; 	cpw X, W_NEW_PTR
 605                         ; 	jrne IsTargetFloor_loop
 606                         ; IsTargetFloor_False:
 607                         ; 	ld A, #False
 608                         ; 	jra IsTargetFloor_exit
 609                         ; IsTargetFloor_True:
 610                         ; 	ld A, #True
 611                         
 612                         ; IsTargetFloor_exit:
 613                         ; 	popw X
 614                         ; 	pop cc
 615                         ; 	ret
 616                         
 617                         
 618                         
 619                         ; ---------------------------------
 620                         ; name  : A IsReached()
 621                         ; params: 
 622                         ;
 623                         ; return: A: request reached ? => {True, False}
 624                         ; =================================
 625                         ; A IsReached()
 626                         ; {
 627                         ; }
 628                         ; ---------------------------------
 629                         .IsReached.w  
 630  0088A4   8A                            push     cc
 631                                                          ; pushw X
 632                         IsReached_start:  
 633                                                          ; ldw X, W_CUR_TARGET_PTR
 634                                                          ; call DecRotatePointer
STMicroelectronics list file postprocessor v1.01   (C)2009-2019   Wed Jun 19 15:36:22 2019
Page 25  Assembler
                                               e:\stm8s\elevator\request.asm

 635  0088A5   92C60C                        ld       A, [W_CUR_TARGET_PTR.w]
 636  0088A8   B109                          cp       A, B_FLOOR
 637  0088AA   2604                          jrne     IsReached_False
 638                         IsReached_True:  
 639  0088AC   A601                          ld       A, #1
 640  0088AE   2002                          jra      IsReached_exit
 641                         IsReached_False:  
 642  0088B0   A600                          ld       A, #0
 643                         IsReached_exit:  
 644                                                          ; popw X
 645  0088B2   86                            pop      cc
 646  0088B3   81                            ret      
 647                         
 648                         
 649                         
 650                         ; ---------------------------------
 651                         ; name  : A IsAllReqDone()
 652                         ; params: 
 653                         ;
 654                         ; return: A: 
 655                         ; =================================
 656                         ; A IsAllReqDone()
 657                         ; {
 658                         ; }
 659                         ; ---------------------------------
 660                         .IsAllReqDone.w  
 661  0088B4   8A                            push     cc
 662  0088B5   89                            pushw    X
 663                         IsAllReqDone_start:  
 664  0088B6   AE0008                        ldw      X, #8
 665                         IsAllReqDone_loop:  
 666  0088B9   CD87FC                        call     GetFloorReq
 667  0088BC   A100                          cp       A, #0
 668  0088BE   2607                          jrne     IsAllReqDone_False
 669  0088C0   5A                            decw     X
 670  0088C1   26F6                          jrne     IsAllReqDone_loop
 671                         IsAllReqDone_True:  
 672  0088C3   A601                          ld       A, #1
 673  0088C5   2002                          jra      IsAllReqDone_exit
 674                         IsAllReqDone_False:  
 675  0088C7   A600                          ld       A, #0
 676                         IsAllReqDone_exit:  
 677  0088C9   85                            popw     X
 678  0088CA   86                            pop      cc
 679  0088CB   81                            ret      
 680                         
 681                         
 682                         
 683                         ; ---------------------------------
 684                         ; name  : A GetNearFloorReq()
 685                         ; params: 
 686                         ;
 687                         ; return: A: 
 688                         ; =================================
 689                         ; A GetNearFloorReq()
 690                         ; {
 691                         ; }
STMicroelectronics list file postprocessor v1.01   (C)2009-2019   Wed Jun 19 15:36:22 2019
Page 26  Assembler
                                               e:\stm8s\elevator\request.asm

 692                         ; ---------------------------------
 693                         .GetNearFloorReq.w  
 694  0088CC   8A                            push     cc
 695  0088CD   89                            pushw    X
 696                                                          ; pushw Y
 697                         GetNearFloorReq_start:  
 698                         ; 	clrw X
 699                         ; 	ld A, B_FLOOR
 700                         ; 	cp A, #1
 701                         
 702                         ; 	jrne GetNearFloorReq_other_floor
 703                         ; GetNearFloorReq_floor_1:
 704                         ; GetNearFloorReq_floor_1_loop:
 705                         ; 	inc A
 706                         ; 	cp A, #MAX_FLOOR
 707                         ; 	jreq GetNearFloorReq_invalid
 708                         ; 	ld XL, A
 709                         ; 	call GetFloorReq
 710                         ; 	cp A, #REQ_NULL
 711                         ; 	jreq GetNearFloorReq_floor_1_loop
 712                         ; 	jra GetNearFloorReq_return_req
 713                         ; GetNearFloorReq_other_floor:
 714  0088CE   5F                            clrw     X
 715  0088CF   4B00                          push     #0
 716                         GetNearFloorReq_other_floor_lo  :        
 717                         GetNearFloorReq_other_floor_ch  :        
 718  0088D1   B609                          ld       A, B_FLOOR
 719  0088D3   1B01                          add      A, (1,SP)
 720  0088D5   A108                          cp       A, #8
 721  0088D7   2B0A                          jrmi     GetNearFloorReq_other_floor_up
 722  0088D9   B609                          ld       A, B_FLOOR
 723  0088DB   1001                          sub      A, (1,SP)
 724  0088DD   A101                          cp       A, #1
 725  0088DF   2A02                          jrpl     GetNearFloorReq_other_floor_up
 726  0088E1   2028                          jra      GetNearFloorReq_invalid
 727                         GetNearFloorReq_other_floor_up:  
 728  0088E3   0C01                          inc      (1,SP)
 729  0088E5   B609                          ld       A, B_FLOOR
 730  0088E7   1B01                          add      A, (1,SP)
 731  0088E9   A108                          cp       A, #8
 732  0088EB   2208                          jrugt    GetNearFloorReq_other_floor_do  
 733  0088ED   97                            ld       XL, A
 734  0088EE   CD87FC                        call     GetFloorReq
 735  0088F1   A100                          cp       A, #0
 736  0088F3   2612                          jrne     GetNearFloorReq_return_req_oth        
 737                         GetNearFloorReq_other_floor_do  :        
 738  0088F5   B609                          ld       A, B_FLOOR
 739  0088F7   1001                          sub      A, (1,SP)
 740  0088F9   A101                          cp       A, #1
 741  0088FB   2BD4                          jrmi     GetNearFloorReq_other_floor_lo  
 742  0088FD   97                            ld       XL, A
 743  0088FE   CD87FC                        call     GetFloorReq
 744  008901   A100                          cp       A, #0
 745  008903   2602                          jrne     GetNearFloorReq_return_req_oth        
 746  008905   20CA                          jra      GetNearFloorReq_other_floor_lo  
 747                         
 748                         GetNearFloorReq_return_req_oth  :        
STMicroelectronics list file postprocessor v1.01   (C)2009-2019   Wed Jun 19 15:36:22 2019
Page 27  Assembler
                                               e:\stm8s\elevator\request.asm

 749  008907   84                            pop      A
 750                         GetNearFloorReq_return_req:  
 751                                                          ; ld A, #True
 752  008908   9F                            ld       A, XL
 753  008909   2003                          jra      GetNearFloorReq_exit
 754                         GetNearFloorReq_invalid:  
 755  00890B   84                            pop      A
 756  00890C   A600                          ld       A, #0
 757                         GetNearFloorReq_exit:  
 758                                                          ; popw Y
 759  00890E   85                            popw     X
 760  00890F   86                            pop      cc
 761  008910   81                            ret      
 762                         
 763                         
 764                         
 765                         
 766                         
 767                         
 768                         
 769                         
 770                         
 771                         
 772  008911                                 end      
STMicroelectronics list file postprocessor v1.01   (C)2009-2019   Wed Jun 19 15:36:22 2019
Page 28  Assembler
                                               e:\stm8s\elevator\request.asm

Symbol Name                       Value     Call       Type  Scope      Rel.  Line  Privacy  Segment   Size  Bytes File

AWU_CSR                               50F0         no  WORD  Internal   ABS    170  private  text         0     0  c:\program files (x86)\stmicroelectronics\st_toolset\asm\include\STM8S105K.inc
AWU_APR                               50F1         no  WORD  Internal   ABS    172  private  text         0     0  c:\program files (x86)\stmicroelectronics\st_toolset\asm\include\STM8S105K.inc
AWU_TBR                               50F2         no  WORD  Internal   ABS    174  private  text         0     0  c:\program files (x86)\stmicroelectronics\st_toolset\asm\include\STM8S105K.inc
ADC_DB0RH                             53E0         no  WORD  Internal   ABS    427  private  text         0     0  c:\program files (x86)\stmicroelectronics\st_toolset\asm\include\STM8S105K.inc
ADC_DB0RL                             53E1         no  WORD  Internal   ABS    429  private  text         0     0  c:\program files (x86)\stmicroelectronics\st_toolset\asm\include\STM8S105K.inc
ADC_DB1RH                             53E2         no  WORD  Internal   ABS    431  private  text         0     0  c:\program files (x86)\stmicroelectronics\st_toolset\asm\include\STM8S105K.inc
ADC_DB1RL                             53E3         no  WORD  Internal   ABS    433  private  text         0     0  c:\program files (x86)\stmicroelectronics\st_toolset\asm\include\STM8S105K.inc
ADC_DB2RH                             53E4         no  WORD  Internal   ABS    435  private  text         0     0  c:\program files (x86)\stmicroelectronics\st_toolset\asm\include\STM8S105K.inc
ADC_DB2RL                             53E5         no  WORD  Internal   ABS    437  private  text         0     0  c:\program files (x86)\stmicroelectronics\st_toolset\asm\include\STM8S105K.inc
ADC_DB3RH                             53E6         no  WORD  Internal   ABS    439  private  text         0     0  c:\program files (x86)\stmicroelectronics\st_toolset\asm\include\STM8S105K.inc
ADC_DB3RL                             53E7         no  WORD  Internal   ABS    441  private  text         0     0  c:\program files (x86)\stmicroelectronics\st_toolset\asm\include\STM8S105K.inc
ADC_DB4RH                             53E8         no  WORD  Internal   ABS    443  private  text         0     0  c:\program files (x86)\stmicroelectronics\st_toolset\asm\include\STM8S105K.inc
ADC_DB4RL                             53E9         no  WORD  Internal   ABS    445  private  text         0     0  c:\program files (x86)\stmicroelectronics\st_toolset\asm\include\STM8S105K.inc
ADC_DB5RH                             53EA         no  WORD  Internal   ABS    447  private  text         0     0  c:\program files (x86)\stmicroelectronics\st_toolset\asm\include\STM8S105K.inc
ADC_DB5RL                             53EB         no  WORD  Internal   ABS    449  private  text         0     0  c:\program files (x86)\stmicroelectronics\st_toolset\asm\include\STM8S105K.inc
ADC_DB6RH                             53EC         no  WORD  Internal   ABS    451  private  text         0     0  c:\program files (x86)\stmicroelectronics\st_toolset\asm\include\STM8S105K.inc
ADC_DB6RL                             53ED         no  WORD  Internal   ABS    453  private  text         0     0  c:\program files (x86)\stmicroelectronics\st_toolset\asm\include\STM8S105K.inc
ADC_DB7RH                             53EE         no  WORD  Internal   ABS    455  private  text         0     0  c:\program files (x86)\stmicroelectronics\st_toolset\asm\include\STM8S105K.inc
ADC_DB7RL                             53EF         no  WORD  Internal   ABS    457  private  text         0     0  c:\program files (x86)\stmicroelectronics\st_toolset\asm\include\STM8S105K.inc
ADC_DB8RH                             53F0         no  WORD  Internal   ABS    459  private  text         0     0  c:\program files (x86)\stmicroelectronics\st_toolset\asm\include\STM8S105K.inc
ADC_DB8RL                             53F1         no  WORD  Internal   ABS    461  private  text         0     0  c:\program files (x86)\stmicroelectronics\st_toolset\asm\include\STM8S105K.inc
ADC_DB9RH                             53F2         no  WORD  Internal   ABS    463  private  text         0     0  c:\program files (x86)\stmicroelectronics\st_toolset\asm\include\STM8S105K.inc
ADC_DB9RL                             53F3         no  WORD  Internal   ABS    465  private  text         0     0  c:\program files (x86)\stmicroelectronics\st_toolset\asm\include\STM8S105K.inc
ADC_CSR                               5400         no  WORD  Internal   ABS    467  private  text         0     0  c:\program files (x86)\stmicroelectronics\st_toolset\asm\include\STM8S105K.inc
ADC_CR1                               5401         no  WORD  Internal   ABS    469  private  text         0     0  c:\program files (x86)\stmicroelectronics\st_toolset\asm\include\STM8S105K.inc
ADC_CR2                               5402         no  WORD  Internal   ABS    471  private  text         0     0  c:\program files (x86)\stmicroelectronics\st_toolset\asm\include\STM8S105K.inc
ADC_CR3                               5403         no  WORD  Internal   ABS    473  private  text         0     0  c:\program files (x86)\stmicroelectronics\st_toolset\asm\include\STM8S105K.inc
ADC_DRH                               5404         no  WORD  Internal   ABS    475  private  text         0     0  c:\program files (x86)\stmicroelectronics\st_toolset\asm\include\STM8S105K.inc
ADC_DRL                               5405         no  WORD  Internal   ABS    477  private  text         0     0  c:\program files (x86)\stmicroelectronics\st_toolset\asm\include\STM8S105K.inc
ADC_TDRH                              5406         no  WORD  Internal   ABS    479  private  text         0     0  c:\program files (x86)\stmicroelectronics\st_toolset\asm\include\STM8S105K.inc
ADC_TDRL                              5407         no  WORD  Internal   ABS    481  private  text         0     0  c:\program files (x86)\stmicroelectronics\st_toolset\asm\include\STM8S105K.inc
ADC_HTRH                              5408         no  WORD  Internal   ABS    483  private  text         0     0  c:\program files (x86)\stmicroelectronics\st_toolset\asm\include\STM8S105K.inc
ADC_HTRL                              5409         no  WORD  Internal   ABS    485  private  text         0     0  c:\program files (x86)\stmicroelectronics\st_toolset\asm\include\STM8S105K.inc
ADC_LTRH                              540A         no  WORD  Internal   ABS    487  private  text         0     0  c:\program files (x86)\stmicroelectronics\st_toolset\asm\include\STM8S105K.inc
ADC_LTRL                              540B         no  WORD  Internal   ABS    489  private  text         0     0  c:\program files (x86)\stmicroelectronics\st_toolset\asm\include\STM8S105K.inc
ADC_AWSRH                             540C         no  WORD  Internal   ABS    491  private  text         0     0  c:\program files (x86)\stmicroelectronics\st_toolset\asm\include\STM8S105K.inc
ADC_AWSRL                             540D         no  WORD  Internal   ABS    493  private  text         0     0  c:\program files (x86)\stmicroelectronics\st_toolset\asm\include\STM8S105K.inc
ADC_AWCRH                             540E         no  WORD  Internal   ABS    495  private  text         0     0  c:\program files (x86)\stmicroelectronics\st_toolset\asm\include\STM8S105K.inc
ADC_AWCRL                             540F         no  WORD  Internal   ABS    497  private  text         0     0  c:\program files (x86)\stmicroelectronics\st_toolset\asm\include\STM8S105K.inc

BEEP_CSR                              50F3         no  WORD  Internal   ABS    179  private  text         0     0  c:\program files (x86)\stmicroelectronics\st_toolset\asm\include\STM8S105K.inc
B_FLOOR                                 09         no  BYTE  Internal   ABS     44  private  text         0     0  e:\stm8s\elevator\variable.inc
B_STATUS                                0A         no  BYTE  Internal   ABS     45  private  text         0     0  e:\stm8s\elevator\variable.inc
B_DIRECTION                             0B         no  BYTE  Internal   ABS     46  private  text         0     0  e:\stm8s\elevator\variable.inc
B_TIMER3_INT_COUNTER                    12         no  BYTE  Internal   ABS     63  private  text         0     0  e:\stm8s\elevator\variable.inc

CLK_ICKR                              50C0         no  WORD  Internal   ABS    125  private  text         0     0  c:\program files (x86)\stmicroelectronics\st_toolset\asm\include\STM8S105K.inc
CLK_ECKR                              50C1         no  WORD  Internal   ABS    127  private  text         0     0  c:\program files (x86)\stmicroelectronics\st_toolset\asm\include\STM8S105K.inc
CLK_CMSR                              50C3         no  WORD  Internal   ABS    129  private  text         0     0  c:\program files (x86)\stmicroelectronics\st_toolset\asm\include\STM8S105K.inc
CLK_SWR                               50C4         no  WORD  Internal   ABS    131  private  text         0     0  c:\program files (x86)\stmicroelectronics\st_toolset\asm\include\STM8S105K.inc
CLK_SWCR                              50C5         no  WORD  Internal   ABS    133  private  text         0     0  c:\program files (x86)\stmicroelectronics\st_toolset\asm\include\STM8S105K.inc
CLK_CKDIVR                            50C6         no  WORD  Internal   ABS    135  private  text         0     0  c:\program files (x86)\stmicroelectronics\st_toolset\asm\include\STM8S105K.inc
CLK_PCKENR1                           50C7         no  WORD  Internal   ABS    137  private  text         0     0  c:\program files (x86)\stmicroelectronics\st_toolset\asm\include\STM8S105K.inc
CLK_CSSR                              50C8         no  WORD  Internal   ABS    139  private  text         0     0  c:\program files (x86)\stmicroelectronics\st_toolset\asm\include\STM8S105K.inc
CLK_CCOR                              50C9         no  WORD  Internal   ABS    141  private  text         0     0  c:\program files (x86)\stmicroelectronics\st_toolset\asm\include\STM8S105K.inc
STMicroelectronics list file postprocessor v1.01   (C)2009-2019   Wed Jun 19 15:36:22 2019
Page 29  Assembler
                                               e:\stm8s\elevator\request.asm

CLK_PCKENR2                           50CA         no  WORD  Internal   ABS    143  private  text         0     0  c:\program files (x86)\stmicroelectronics\st_toolset\asm\include\STM8S105K.inc
CLK_CANCCR                            50CB         no  WORD  Internal   ABS    145  private  text         0     0  c:\program files (x86)\stmicroelectronics\st_toolset\asm\include\STM8S105K.inc
CLK_HSITRIMR                          50CC         no  WORD  Internal   ABS    147  private  text         0     0  c:\program files (x86)\stmicroelectronics\st_toolset\asm\include\STM8S105K.inc
CLK_SWIMCCR                           50CD         no  WORD  Internal   ABS    149  private  text         0     0  c:\program files (x86)\stmicroelectronics\st_toolset\asm\include\STM8S105K.inc
CFG_GCR                               7F60         no  WORD  Internal   ABS    502  private  text         0     0  c:\program files (x86)\stmicroelectronics\st_toolset\asm\include\STM8S105K.inc
CheckQueue                            86AA         no  WORD  Internal   ABS     13  private  text         0     0  e:\stm8s\elevator\request.inc
CloseDoor                             896E         no  WORD  Internal   ABS     31  private  text         0     0  e:\stm8s\elevator\request.inc
CheckLaunch                           874D         no  WORD  Internal   ABS     76  public   text         5     0  -
CheckLaunch_start                     8752         no  WORD  Internal   ABS     81  private  text        19     0  -
CheckLaunch_direction                 8765         no  WORD  Internal   ABS     91  private  text         2     0  -
CheckLaunch_goup                      8767         no  WORD  Internal   ABS     93  private  text         9     0  -
CheckLaunch_godown                    8770         no  WORD  Internal   ABS     97  private  text         7     0  -
CheckLaunch_putnew_exit               8777         no  WORD  Internal   ABS    100  private  text         5     0  -
CheckLaunch_exit                      877C         no  WORD  Internal   ABS    105  private  text         6     0  -
CheckCurrentFloorReq                  8805         no  WORD  Internal   ABS    397  public   text         2     0  -
CheckCurrentFloorReq_start            8807         no  WORD  Internal   ABS    400  private  text        13     0  -
CheckCurrentFloorReq_True             8814         no  WORD  Internal   ABS    409  private  text        16     0  -
CheckCurrentFloorReq_False            8824         no  WORD  Internal   ABS    419  private  text         2     0  -
CheckCurrentFloorReq_exit             8826         no  WORD  Internal   ABS    421  private  text         3     0  -
CheckCurrentFloorTarget               8829         no  WORD  Internal   ABS    437  public   text         2     0  -
CheckCurrentFloorTarget_start         882B         no  WORD  Internal   ABS    440  private  text         7     0  -
CheckCurrentFloorTarget_loop          8832         no  WORD  Internal   ABS    445  private  text        10     0  -
CheckCurrentFloorTarget_False         883C         no  WORD  Internal   ABS    451  private  text         4     0  -
CheckCurrentFloorTarget_True          8840         no  WORD  Internal   ABS    454  private  text         3     0  -
CheckCurrentFloorTarget_True_o        8843         no  WORD  Internal   ABS    457  private  text         2     0  -
CheckCurrentFloorTarget_exit          8845         no  WORD  Internal   ABS    459  private  text         3     0  -

DecRotatePointer                      8718         no  WORD  Internal   ABS     21  private  text         0     0  e:\stm8s\elevator\request.inc

EXTI_CR1                              50A0         no  WORD  Internal   ABS    113  private  text         0     0  c:\program files (x86)\stmicroelectronics\st_toolset\asm\include\STM8S105K.inc
EXTI_CR2                              50A1         no  WORD  Internal   ABS    115  private  text         0     0  c:\program files (x86)\stmicroelectronics\st_toolset\asm\include\STM8S105K.inc

FLASH_CR1                             505A         no  WORD  Internal   ABS     94  private  text         0     0  c:\program files (x86)\stmicroelectronics\st_toolset\asm\include\STM8S105K.inc
FLASH_CR2                             505B         no  WORD  Internal   ABS     96  private  text         0     0  c:\program files (x86)\stmicroelectronics\st_toolset\asm\include\STM8S105K.inc
FLASH_NCR2                            505C         no  WORD  Internal   ABS     98  private  text         0     0  c:\program files (x86)\stmicroelectronics\st_toolset\asm\include\STM8S105K.inc
FLASH_FPR                             505D         no  WORD  Internal   ABS    100  private  text         0     0  c:\program files (x86)\stmicroelectronics\st_toolset\asm\include\STM8S105K.inc
FLASH_NFPR                            505E         no  WORD  Internal   ABS    102  private  text         0     0  c:\program files (x86)\stmicroelectronics\st_toolset\asm\include\STM8S105K.inc
FLASH_IAPSR                           505F         no  WORD  Internal   ABS    104  private  text         0     0  c:\program files (x86)\stmicroelectronics\st_toolset\asm\include\STM8S105K.inc
FLASH_PUKR                            5062         no  WORD  Internal   ABS    106  private  text         0     0  c:\program files (x86)\stmicroelectronics\st_toolset\asm\include\STM8S105K.inc
FLASH_DUKR                            5064         no  WORD  Internal   ABS    108  private  text         0     0  c:\program files (x86)\stmicroelectronics\st_toolset\asm\include\STM8S105K.inc
FLOOR_TOP                             0108         no  WORD  Internal   ABS     51  private  text         0     0  e:\stm8s\elevator\variable.inc
FLOOR_BOTTOM                          0100         no  WORD  Internal   ABS     52  private  text         0     0  e:\stm8s\elevator\variable.inc

GetNextTarget                         868C         no  WORD  Internal   ABS     24  private  text         0     0  e:\stm8s\elevator\request.inc
GoUp                                  8932         no  WORD  Internal   ABS     27  private  text         0     0  e:\stm8s\elevator\request.inc
GoDown                                8941         no  WORD  Internal   ABS     28  private  text         0     0  e:\stm8s\elevator\request.inc
GoIdle                                8950         no  WORD  Internal   ABS     29  private  text         0     0  e:\stm8s\elevator\request.inc
GoCurrentTarget                       8782         no  WORD  Internal   ABS    122  public   text         5     0  -
GoCurrentTarget_start                 8787         no  WORD  Internal   ABS    127  private  text         7     0  -
GoCurrentTarget_is_target_empt        878E         no  WORD  Internal   ABS    132  private  text        10     0  -
GoCurrentTarget_determine_dire        8798         no  WORD  Internal   ABS    137  private  text        18     0  -
GoCurrentTarget_goidle_determi        87AA         no  WORD  Internal   ABS    153  private  text         9     0  -
GoCurrentTarget_goup                  87B3         no  WORD  Internal   ABS    157  private  text         9     0  -
GoCurrentTarget_godown                87BC         no  WORD  Internal   ABS    161  private  text         7     0  -
GoCurrentTarget_exit                  87C3         no  WORD  Internal   ABS    164  private  text         6     0  -
GoNextTarget                          87C9         no  WORD  Internal   ABS    182  public   text         3     0  -
GoNextTarget_start                    87CC         no  WORD  Internal   ABS    186  private  text         3     0  -
STMicroelectronics list file postprocessor v1.01   (C)2009-2019   Wed Jun 19 15:36:22 2019
Page 30  Assembler
                                               e:\stm8s\elevator\request.asm

GoNextTarget_loop                     87CF         no  WORD  Internal   ABS    190  private  text        12     0  -
GoNextTarget_inc_ptr                  87DB         no  WORD  Internal   ABS    197  private  text         2     0  -
GoNextTarget_exit                     87DD         no  WORD  Internal   ABS    199  private  text         4     0  -
GetFloorReq                           87FC         no  WORD  Internal   ABS    375  public   text         2     0  -
GetFloorReq_start                     87FE         no  WORD  Internal   ABS    378  private  text         4     0  -
GetFloorReq_exit                      8802         no  WORD  Internal   ABS    381  private  text         3     0  -
GetNextDirTargetPointer               886D         no  WORD  Internal   ABS    524  public   text         2     0  -
GetNextDirTargetPointer_start         886F         no  WORD  Internal   ABS    527  private  text        13     0  -
GetNextDirTargetPointer_up_loo        887C         no  WORD  Internal   ABS    541  private  text        16     0  -
GetNextDirTargetPointer_down_l        888C         no  WORD  Internal   ABS    553  private  text        16     0  -
GetNextDirTargetPointer_invali        889C         no  WORD  Internal   ABS    563  private  text         3     0  -
GetNextDirTargetPointer_target        889F         no  WORD  Internal   ABS    565  private  text         5     0  -
GetNextDirTargetPointer_exit          889F         no  WORD  Internal   ABS    567  private  text         5     0  -
GetNearFloorReq                       88CC         no  WORD  Internal   ABS    693  public   text         2     0  -
GetNearFloorReq_start                 88CE         no  WORD  Internal   ABS    697  private  text         3     0  -
GetNearFloorReq_other_floor_lo        88D1         no  WORD  Internal   ABS    716  private  text        18     0  -
GetNearFloorReq_other_floor_ch        88D1         no  WORD  Internal   ABS    717  private  text        18     0  -
GetNearFloorReq_other_floor_up        88E3         no  WORD  Internal   ABS    727  private  text        18     0  -
GetNearFloorReq_other_floor_do        88F5         no  WORD  Internal   ABS    737  private  text        18     0  -
GetNearFloorReq_return_req_oth        8907         no  WORD  Internal   ABS    748  private  text         1     0  -
GetNearFloorReq_return_req            8908         no  WORD  Internal   ABS    750  private  text         3     0  -
GetNearFloorReq_invalid               890B         no  WORD  Internal   ABS    754  private  text         3     0  -
GetNearFloorReq_exit                  890E         no  WORD  Internal   ABS    757  private  text         3     0  -

IWDG_KR                               50E0         no  WORD  Internal   ABS    161  private  text         0     0  c:\program files (x86)\stmicroelectronics\st_toolset\asm\include\STM8S105K.inc
IWDG_PR                               50E1         no  WORD  Internal   ABS    163  private  text         0     0  c:\program files (x86)\stmicroelectronics\st_toolset\asm\include\STM8S105K.inc
IWDG_RLR                              50E2         no  WORD  Internal   ABS    165  private  text         0     0  c:\program files (x86)\stmicroelectronics\st_toolset\asm\include\STM8S105K.inc
I2C_CR1                               5210         no  WORD  Internal   ABS    203  private  text         0     0  c:\program files (x86)\stmicroelectronics\st_toolset\asm\include\STM8S105K.inc
I2C_CR2                               5211         no  WORD  Internal   ABS    205  private  text         0     0  c:\program files (x86)\stmicroelectronics\st_toolset\asm\include\STM8S105K.inc
I2C_FREQR                             5212         no  WORD  Internal   ABS    207  private  text         0     0  c:\program files (x86)\stmicroelectronics\st_toolset\asm\include\STM8S105K.inc
I2C_OARL                              5213         no  WORD  Internal   ABS    209  private  text         0     0  c:\program files (x86)\stmicroelectronics\st_toolset\asm\include\STM8S105K.inc
I2C_OARH                              5214         no  WORD  Internal   ABS    211  private  text         0     0  c:\program files (x86)\stmicroelectronics\st_toolset\asm\include\STM8S105K.inc
I2C_DR                                5216         no  WORD  Internal   ABS    213  private  text         0     0  c:\program files (x86)\stmicroelectronics\st_toolset\asm\include\STM8S105K.inc
I2C_SR1                               5217         no  WORD  Internal   ABS    215  private  text         0     0  c:\program files (x86)\stmicroelectronics\st_toolset\asm\include\STM8S105K.inc
I2C_SR2                               5218         no  WORD  Internal   ABS    217  private  text         0     0  c:\program files (x86)\stmicroelectronics\st_toolset\asm\include\STM8S105K.inc
I2C_SR3                               5219         no  WORD  Internal   ABS    219  private  text         0     0  c:\program files (x86)\stmicroelectronics\st_toolset\asm\include\STM8S105K.inc
I2C_ITR                               521A         no  WORD  Internal   ABS    221  private  text         0     0  c:\program files (x86)\stmicroelectronics\st_toolset\asm\include\STM8S105K.inc
I2C_CCRL                              521B         no  WORD  Internal   ABS    223  private  text         0     0  c:\program files (x86)\stmicroelectronics\st_toolset\asm\include\STM8S105K.inc
I2C_CCRH                              521C         no  WORD  Internal   ABS    225  private  text         0     0  c:\program files (x86)\stmicroelectronics\st_toolset\asm\include\STM8S105K.inc
I2C_TRISER                            521D         no  WORD  Internal   ABS    227  private  text         0     0  c:\program files (x86)\stmicroelectronics\st_toolset\asm\include\STM8S105K.inc
I2C_PECR                              521E         no  WORD  Internal   ABS    229  private  text         0     0  c:\program files (x86)\stmicroelectronics\st_toolset\asm\include\STM8S105K.inc
ITC_SPR1                              7F70         no  WORD  Internal   ABS    507  private  text         0     0  c:\program files (x86)\stmicroelectronics\st_toolset\asm\include\STM8S105K.inc
ITC_SPR2                              7F71         no  WORD  Internal   ABS    509  private  text         0     0  c:\program files (x86)\stmicroelectronics\st_toolset\asm\include\STM8S105K.inc
ITC_SPR3                              7F72         no  WORD  Internal   ABS    511  private  text         0     0  c:\program files (x86)\stmicroelectronics\st_toolset\asm\include\STM8S105K.inc
ITC_SPR4                              7F73         no  WORD  Internal   ABS    513  private  text         0     0  c:\program files (x86)\stmicroelectronics\st_toolset\asm\include\STM8S105K.inc
ITC_SPR5                              7F74         no  WORD  Internal   ABS    515  private  text         0     0  c:\program files (x86)\stmicroelectronics\st_toolset\asm\include\STM8S105K.inc
ITC_SPR6                              7F75         no  WORD  Internal   ABS    517  private  text         0     0  c:\program files (x86)\stmicroelectronics\st_toolset\asm\include\STM8S105K.inc
ITC_SPR7                              7F76         no  WORD  Internal   ABS    519  private  text         0     0  c:\program files (x86)\stmicroelectronics\st_toolset\asm\include\STM8S105K.inc
IsQueueFull                           86CF         no  WORD  Internal   ABS     15  private  text         0     0  e:\stm8s\elevator\request.inc
IsQueueEmpty                          86F1         no  WORD  Internal   ABS     16  private  text         0     0  e:\stm8s\elevator\request.inc
IncRotatePointer                      870C         no  WORD  Internal   ABS     19  private  text         0     0  e:\stm8s\elevator\request.inc
IsNextTargetDirection                 8848         no  WORD  Internal   ABS    475  public   text         2     0  -
IsNextTargetDirection_start           884A         no  WORD  Internal   ABS    478  private  text        17     0  -
IsNextTargetDirection_down            885B         no  WORD  Internal   ABS    492  private  text         4     0  -
IsNextTargetDirection_up              885F         no  WORD  Internal   ABS    495  private  text         4     0  -
IsNextTargetDirection_True            8863         no  WORD  Internal   ABS    499  private  text         4     0  -
IsNextTargetDirection_False           8867         no  WORD  Internal   ABS    502  private  text         2     0  -
STMicroelectronics list file postprocessor v1.01   (C)2009-2019   Wed Jun 19 15:36:22 2019
Page 31  Assembler
                                               e:\stm8s\elevator\request.asm

IsNextTargetDirection_exit            8869         no  WORD  Internal   ABS    504  private  text         4     0  -
IsReached                             88A4         no  WORD  Internal   ABS    629  public   text         1     0  -
IsReached_start                       88A5         no  WORD  Internal   ABS    632  private  text         7     0  -
IsReached_True                        88AC         no  WORD  Internal   ABS    638  private  text         4     0  -
IsReached_False                       88B0         no  WORD  Internal   ABS    641  private  text         2     0  -
IsReached_exit                        88B2         no  WORD  Internal   ABS    643  private  text         2     0  -
IsAllReqDone                          88B4         no  WORD  Internal   ABS    660  public   text         2     0  -
IsAllReqDone_start                    88B6         no  WORD  Internal   ABS    663  private  text         3     0  -
IsAllReqDone_loop                     88B9         no  WORD  Internal   ABS    665  private  text        10     0  -
IsAllReqDone_True                     88C3         no  WORD  Internal   ABS    671  private  text         4     0  -
IsAllReqDone_False                    88C7         no  WORD  Internal   ABS    674  private  text         2     0  -
IsAllReqDone_exit                     88C9         no  WORD  Internal   ABS    676  private  text         3     0  -

LED_Refresh                           816B         no  WORD  Internal   ABS     33  private  text         0     0  e:\stm8s\elevator\request.inc

OpenDoor                              895F         no  WORD  Internal   ABS     30  private  text         0     0  e:\stm8s\elevator\request.inc

PA_ODR                                5000         no  WORD  Internal   ABS     16  private  text         0     0  c:\program files (x86)\stmicroelectronics\st_toolset\asm\include\STM8S105K.inc
PA_IDR                                5001         no  WORD  Internal   ABS     18  private  text         0     0  c:\program files (x86)\stmicroelectronics\st_toolset\asm\include\STM8S105K.inc
PA_DDR                                5002         no  WORD  Internal   ABS     20  private  text         0     0  c:\program files (x86)\stmicroelectronics\st_toolset\asm\include\STM8S105K.inc
PA_CR1                                5003         no  WORD  Internal   ABS     22  private  text         0     0  c:\program files (x86)\stmicroelectronics\st_toolset\asm\include\STM8S105K.inc
PA_CR2                                5004         no  WORD  Internal   ABS     24  private  text         0     0  c:\program files (x86)\stmicroelectronics\st_toolset\asm\include\STM8S105K.inc
PB_ODR                                5005         no  WORD  Internal   ABS     29  private  text         0     0  c:\program files (x86)\stmicroelectronics\st_toolset\asm\include\STM8S105K.inc
PB_IDR                                5006         no  WORD  Internal   ABS     31  private  text         0     0  c:\program files (x86)\stmicroelectronics\st_toolset\asm\include\STM8S105K.inc
PB_DDR                                5007         no  WORD  Internal   ABS     33  private  text         0     0  c:\program files (x86)\stmicroelectronics\st_toolset\asm\include\STM8S105K.inc
PB_CR1                                5008         no  WORD  Internal   ABS     35  private  text         0     0  c:\program files (x86)\stmicroelectronics\st_toolset\asm\include\STM8S105K.inc
PB_CR2                                5009         no  WORD  Internal   ABS     37  private  text         0     0  c:\program files (x86)\stmicroelectronics\st_toolset\asm\include\STM8S105K.inc
PC_ODR                                500A         no  WORD  Internal   ABS     42  private  text         0     0  c:\program files (x86)\stmicroelectronics\st_toolset\asm\include\STM8S105K.inc
PC_IDR                                500B         no  WORD  Internal   ABS     44  private  text         0     0  c:\program files (x86)\stmicroelectronics\st_toolset\asm\include\STM8S105K.inc
PC_DDR                                500C         no  WORD  Internal   ABS     46  private  text         0     0  c:\program files (x86)\stmicroelectronics\st_toolset\asm\include\STM8S105K.inc
PC_CR1                                500D         no  WORD  Internal   ABS     48  private  text         0     0  c:\program files (x86)\stmicroelectronics\st_toolset\asm\include\STM8S105K.inc
PC_CR2                                500E         no  WORD  Internal   ABS     50  private  text         0     0  c:\program files (x86)\stmicroelectronics\st_toolset\asm\include\STM8S105K.inc
PD_ODR                                500F         no  WORD  Internal   ABS     55  private  text         0     0  c:\program files (x86)\stmicroelectronics\st_toolset\asm\include\STM8S105K.inc
PD_IDR                                5010         no  WORD  Internal   ABS     57  private  text         0     0  c:\program files (x86)\stmicroelectronics\st_toolset\asm\include\STM8S105K.inc
PD_DDR                                5011         no  WORD  Internal   ABS     59  private  text         0     0  c:\program files (x86)\stmicroelectronics\st_toolset\asm\include\STM8S105K.inc
PD_CR1                                5012         no  WORD  Internal   ABS     61  private  text         0     0  c:\program files (x86)\stmicroelectronics\st_toolset\asm\include\STM8S105K.inc
PD_CR2                                5013         no  WORD  Internal   ABS     63  private  text         0     0  c:\program files (x86)\stmicroelectronics\st_toolset\asm\include\STM8S105K.inc
PE_ODR                                5014         no  WORD  Internal   ABS     68  private  text         0     0  c:\program files (x86)\stmicroelectronics\st_toolset\asm\include\STM8S105K.inc
PE_IDR                                5015         no  WORD  Internal   ABS     70  private  text         0     0  c:\program files (x86)\stmicroelectronics\st_toolset\asm\include\STM8S105K.inc
PE_DDR                                5016         no  WORD  Internal   ABS     72  private  text         0     0  c:\program files (x86)\stmicroelectronics\st_toolset\asm\include\STM8S105K.inc
PE_CR1                                5017         no  WORD  Internal   ABS     74  private  text         0     0  c:\program files (x86)\stmicroelectronics\st_toolset\asm\include\STM8S105K.inc
PE_CR2                                5018         no  WORD  Internal   ABS     76  private  text         0     0  c:\program files (x86)\stmicroelectronics\st_toolset\asm\include\STM8S105K.inc
PF_ODR                                5019         no  WORD  Internal   ABS     81  private  text         0     0  c:\program files (x86)\stmicroelectronics\st_toolset\asm\include\STM8S105K.inc
PF_IDR                                501A         no  WORD  Internal   ABS     83  private  text         0     0  c:\program files (x86)\stmicroelectronics\st_toolset\asm\include\STM8S105K.inc
PF_DDR                                501B         no  WORD  Internal   ABS     85  private  text         0     0  c:\program files (x86)\stmicroelectronics\st_toolset\asm\include\STM8S105K.inc
PF_CR1                                501C         no  WORD  Internal   ABS     87  private  text         0     0  c:\program files (x86)\stmicroelectronics\st_toolset\asm\include\STM8S105K.inc
PF_CR2                                501D         no  WORD  Internal   ABS     89  private  text         0     0  c:\program files (x86)\stmicroelectronics\st_toolset\asm\include\STM8S105K.inc
PutNewTarget                          867A         no  WORD  Internal   ABS     10  private  text         0     0  e:\stm8s\elevator\request.inc
PutTargetFloor                        87E1         no  WORD  Internal   ABS    339  public   text         1     0  -
PutTargetFloor_start                  87E2         no  WORD  Internal   ABS    341  private  text        21     0  -
PutTargetFloor_put                    87F7         no  WORD  Internal   ABS    354  private  text         3     0  -
PutTargetFloor_exit                   87FA         no  WORD  Internal   ABS    356  private  text         2     0  -

RST_SR                                50B3         no  WORD  Internal   ABS    120  private  text         0     0  c:\program files (x86)\stmicroelectronics\st_toolset\asm\include\STM8S105K.inc
Request                               8724         no  WORD  Internal   ABS     26  public   text         3     0  -
Request_start                         8727         no  WORD  Internal   ABS     30  private  text        29     0  -
Request_launch                        8744         no  WORD  Internal   ABS     55  private  text         5     0  -
STMicroelectronics list file postprocessor v1.01   (C)2009-2019   Wed Jun 19 15:36:22 2019
Page 32  Assembler
                                               e:\stm8s\elevator\request.asm

Request_exit                          8749         no  WORD  Internal   ABS     59  private  text         4     0  -

SPI_CR1                               5200         no  WORD  Internal   ABS    184  private  text         0     0  c:\program files (x86)\stmicroelectronics\st_toolset\asm\include\STM8S105K.inc
SPI_CR2                               5201         no  WORD  Internal   ABS    186  private  text         0     0  c:\program files (x86)\stmicroelectronics\st_toolset\asm\include\STM8S105K.inc
SPI_ICR                               5202         no  WORD  Internal   ABS    188  private  text         0     0  c:\program files (x86)\stmicroelectronics\st_toolset\asm\include\STM8S105K.inc
SPI_SR                                5203         no  WORD  Internal   ABS    190  private  text         0     0  c:\program files (x86)\stmicroelectronics\st_toolset\asm\include\STM8S105K.inc
SPI_DR                                5204         no  WORD  Internal   ABS    192  private  text         0     0  c:\program files (x86)\stmicroelectronics\st_toolset\asm\include\STM8S105K.inc
SPI_CRCPR                             5205         no  WORD  Internal   ABS    194  private  text         0     0  c:\program files (x86)\stmicroelectronics\st_toolset\asm\include\STM8S105K.inc
SPI_RXCRCR                            5206         no  WORD  Internal   ABS    196  private  text         0     0  c:\program files (x86)\stmicroelectronics\st_toolset\asm\include\STM8S105K.inc
SPI_TXCRCR                            5207         no  WORD  Internal   ABS    198  private  text         0     0  c:\program files (x86)\stmicroelectronics\st_toolset\asm\include\STM8S105K.inc

TIM1_CR1                              5250         no  WORD  Internal   ABS    261  private  text         0     0  c:\program files (x86)\stmicroelectronics\st_toolset\asm\include\STM8S105K.inc
TIM1_CR2                              5251         no  WORD  Internal   ABS    263  private  text         0     0  c:\program files (x86)\stmicroelectronics\st_toolset\asm\include\STM8S105K.inc
TIM1_SMCR                             5252         no  WORD  Internal   ABS    265  private  text         0     0  c:\program files (x86)\stmicroelectronics\st_toolset\asm\include\STM8S105K.inc
TIM1_ETR                              5253         no  WORD  Internal   ABS    267  private  text         0     0  c:\program files (x86)\stmicroelectronics\st_toolset\asm\include\STM8S105K.inc
TIM1_IER                              5254         no  WORD  Internal   ABS    269  private  text         0     0  c:\program files (x86)\stmicroelectronics\st_toolset\asm\include\STM8S105K.inc
TIM1_SR1                              5255         no  WORD  Internal   ABS    271  private  text         0     0  c:\program files (x86)\stmicroelectronics\st_toolset\asm\include\STM8S105K.inc
TIM1_SR2                              5256         no  WORD  Internal   ABS    273  private  text         0     0  c:\program files (x86)\stmicroelectronics\st_toolset\asm\include\STM8S105K.inc
TIM1_EGR                              5257         no  WORD  Internal   ABS    275  private  text         0     0  c:\program files (x86)\stmicroelectronics\st_toolset\asm\include\STM8S105K.inc
TIM1_CCMR1                            5258         no  WORD  Internal   ABS    277  private  text         0     0  c:\program files (x86)\stmicroelectronics\st_toolset\asm\include\STM8S105K.inc
TIM1_CCMR2                            5259         no  WORD  Internal   ABS    279  private  text         0     0  c:\program files (x86)\stmicroelectronics\st_toolset\asm\include\STM8S105K.inc
TIM1_CCMR3                            525A         no  WORD  Internal   ABS    281  private  text         0     0  c:\program files (x86)\stmicroelectronics\st_toolset\asm\include\STM8S105K.inc
TIM1_CCMR4                            525B         no  WORD  Internal   ABS    283  private  text         0     0  c:\program files (x86)\stmicroelectronics\st_toolset\asm\include\STM8S105K.inc
TIM1_CCER1                            525C         no  WORD  Internal   ABS    285  private  text         0     0  c:\program files (x86)\stmicroelectronics\st_toolset\asm\include\STM8S105K.inc
TIM1_CCER2                            525D         no  WORD  Internal   ABS    287  private  text         0     0  c:\program files (x86)\stmicroelectronics\st_toolset\asm\include\STM8S105K.inc
TIM1_CNTRH                            525E         no  WORD  Internal   ABS    289  private  text         0     0  c:\program files (x86)\stmicroelectronics\st_toolset\asm\include\STM8S105K.inc
TIM1_CNTRL                            525F         no  WORD  Internal   ABS    291  private  text         0     0  c:\program files (x86)\stmicroelectronics\st_toolset\asm\include\STM8S105K.inc
TIM1_PSCRH                            5260         no  WORD  Internal   ABS    293  private  text         0     0  c:\program files (x86)\stmicroelectronics\st_toolset\asm\include\STM8S105K.inc
TIM1_PSCRL                            5261         no  WORD  Internal   ABS    295  private  text         0     0  c:\program files (x86)\stmicroelectronics\st_toolset\asm\include\STM8S105K.inc
TIM1_ARRH                             5262         no  WORD  Internal   ABS    297  private  text         0     0  c:\program files (x86)\stmicroelectronics\st_toolset\asm\include\STM8S105K.inc
TIM1_ARRL                             5263         no  WORD  Internal   ABS    299  private  text         0     0  c:\program files (x86)\stmicroelectronics\st_toolset\asm\include\STM8S105K.inc
TIM1_RCR                              5264         no  WORD  Internal   ABS    301  private  text         0     0  c:\program files (x86)\stmicroelectronics\st_toolset\asm\include\STM8S105K.inc
TIM1_CCR1H                            5265         no  WORD  Internal   ABS    303  private  text         0     0  c:\program files (x86)\stmicroelectronics\st_toolset\asm\include\STM8S105K.inc
TIM1_CCR1L                            5266         no  WORD  Internal   ABS    305  private  text         0     0  c:\program files (x86)\stmicroelectronics\st_toolset\asm\include\STM8S105K.inc
TIM1_CCR2H                            5267         no  WORD  Internal   ABS    307  private  text         0     0  c:\program files (x86)\stmicroelectronics\st_toolset\asm\include\STM8S105K.inc
TIM1_CCR2L                            5268         no  WORD  Internal   ABS    309  private  text         0     0  c:\program files (x86)\stmicroelectronics\st_toolset\asm\include\STM8S105K.inc
TIM1_CCR3H                            5269         no  WORD  Internal   ABS    311  private  text         0     0  c:\program files (x86)\stmicroelectronics\st_toolset\asm\include\STM8S105K.inc
TIM1_CCR3L                            526A         no  WORD  Internal   ABS    313  private  text         0     0  c:\program files (x86)\stmicroelectronics\st_toolset\asm\include\STM8S105K.inc
TIM1_CCR4H                            526B         no  WORD  Internal   ABS    315  private  text         0     0  c:\program files (x86)\stmicroelectronics\st_toolset\asm\include\STM8S105K.inc
TIM1_CCR4L                            526C         no  WORD  Internal   ABS    317  private  text         0     0  c:\program files (x86)\stmicroelectronics\st_toolset\asm\include\STM8S105K.inc
TIM1_BKR                              526D         no  WORD  Internal   ABS    319  private  text         0     0  c:\program files (x86)\stmicroelectronics\st_toolset\asm\include\STM8S105K.inc
TIM1_DTR                              526E         no  WORD  Internal   ABS    321  private  text         0     0  c:\program files (x86)\stmicroelectronics\st_toolset\asm\include\STM8S105K.inc
TIM1_OISR                             526F         no  WORD  Internal   ABS    323  private  text         0     0  c:\program files (x86)\stmicroelectronics\st_toolset\asm\include\STM8S105K.inc
TIM2_CR1                              5300         no  WORD  Internal   ABS    328  private  text         0     0  c:\program files (x86)\stmicroelectronics\st_toolset\asm\include\STM8S105K.inc
TIM2_IER                              5301         no  WORD  Internal   ABS    330  private  text         0     0  c:\program files (x86)\stmicroelectronics\st_toolset\asm\include\STM8S105K.inc
TIM2_SR1                              5302         no  WORD  Internal   ABS    332  private  text         0     0  c:\program files (x86)\stmicroelectronics\st_toolset\asm\include\STM8S105K.inc
TIM2_SR2                              5303         no  WORD  Internal   ABS    334  private  text         0     0  c:\program files (x86)\stmicroelectronics\st_toolset\asm\include\STM8S105K.inc
TIM2_EGR                              5304         no  WORD  Internal   ABS    336  private  text         0     0  c:\program files (x86)\stmicroelectronics\st_toolset\asm\include\STM8S105K.inc
TIM2_CCMR1                            5305         no  WORD  Internal   ABS    338  private  text         0     0  c:\program files (x86)\stmicroelectronics\st_toolset\asm\include\STM8S105K.inc
TIM2_CCMR2                            5306         no  WORD  Internal   ABS    340  private  text         0     0  c:\program files (x86)\stmicroelectronics\st_toolset\asm\include\STM8S105K.inc
TIM2_CCMR3                            5307         no  WORD  Internal   ABS    342  private  text         0     0  c:\program files (x86)\stmicroelectronics\st_toolset\asm\include\STM8S105K.inc
TIM2_CCER1                            5308         no  WORD  Internal   ABS    344  private  text         0     0  c:\program files (x86)\stmicroelectronics\st_toolset\asm\include\STM8S105K.inc
TIM2_CCER2                            5309         no  WORD  Internal   ABS    346  private  text         0     0  c:\program files (x86)\stmicroelectronics\st_toolset\asm\include\STM8S105K.inc
TIM2_CNTRH                            530A         no  WORD  Internal   ABS    348  private  text         0     0  c:\program files (x86)\stmicroelectronics\st_toolset\asm\include\STM8S105K.inc
TIM2_CNTRL                            530B         no  WORD  Internal   ABS    350  private  text         0     0  c:\program files (x86)\stmicroelectronics\st_toolset\asm\include\STM8S105K.inc
TIM2_PSCR                             530C         no  WORD  Internal   ABS    352  private  text         0     0  c:\program files (x86)\stmicroelectronics\st_toolset\asm\include\STM8S105K.inc
TIM2_ARRH                             530D         no  WORD  Internal   ABS    354  private  text         0     0  c:\program files (x86)\stmicroelectronics\st_toolset\asm\include\STM8S105K.inc
STMicroelectronics list file postprocessor v1.01   (C)2009-2019   Wed Jun 19 15:36:22 2019
Page 33  Assembler
                                               e:\stm8s\elevator\request.asm

TIM2_ARRL                             530E         no  WORD  Internal   ABS    356  private  text         0     0  c:\program files (x86)\stmicroelectronics\st_toolset\asm\include\STM8S105K.inc
TIM2_CCR1H                            530F         no  WORD  Internal   ABS    358  private  text         0     0  c:\program files (x86)\stmicroelectronics\st_toolset\asm\include\STM8S105K.inc
TIM2_CCR1L                            5310         no  WORD  Internal   ABS    360  private  text         0     0  c:\program files (x86)\stmicroelectronics\st_toolset\asm\include\STM8S105K.inc
TIM2_CCR2H                            5311         no  WORD  Internal   ABS    362  private  text         0     0  c:\program files (x86)\stmicroelectronics\st_toolset\asm\include\STM8S105K.inc
TIM2_CCR2L                            5312         no  WORD  Internal   ABS    364  private  text         0     0  c:\program files (x86)\stmicroelectronics\st_toolset\asm\include\STM8S105K.inc
TIM2_CCR3H                            5313         no  WORD  Internal   ABS    366  private  text         0     0  c:\program files (x86)\stmicroelectronics\st_toolset\asm\include\STM8S105K.inc
TIM2_CCR3L                            5314         no  WORD  Internal   ABS    368  private  text         0     0  c:\program files (x86)\stmicroelectronics\st_toolset\asm\include\STM8S105K.inc
TIM3_CR1                              5320         no  WORD  Internal   ABS    373  private  text         0     0  c:\program files (x86)\stmicroelectronics\st_toolset\asm\include\STM8S105K.inc
TIM3_IER                              5321         no  WORD  Internal   ABS    375  private  text         0     0  c:\program files (x86)\stmicroelectronics\st_toolset\asm\include\STM8S105K.inc
TIM3_SR1                              5322         no  WORD  Internal   ABS    377  private  text         0     0  c:\program files (x86)\stmicroelectronics\st_toolset\asm\include\STM8S105K.inc
TIM3_SR2                              5323         no  WORD  Internal   ABS    379  private  text         0     0  c:\program files (x86)\stmicroelectronics\st_toolset\asm\include\STM8S105K.inc
TIM3_EGR                              5324         no  WORD  Internal   ABS    381  private  text         0     0  c:\program files (x86)\stmicroelectronics\st_toolset\asm\include\STM8S105K.inc
TIM3_CCMR1                            5325         no  WORD  Internal   ABS    383  private  text         0     0  c:\program files (x86)\stmicroelectronics\st_toolset\asm\include\STM8S105K.inc
TIM3_CCMR2                            5326         no  WORD  Internal   ABS    385  private  text         0     0  c:\program files (x86)\stmicroelectronics\st_toolset\asm\include\STM8S105K.inc
TIM3_CCER1                            5327         no  WORD  Internal   ABS    387  private  text         0     0  c:\program files (x86)\stmicroelectronics\st_toolset\asm\include\STM8S105K.inc
TIM3_CNTRH                            5328         no  WORD  Internal   ABS    389  private  text         0     0  c:\program files (x86)\stmicroelectronics\st_toolset\asm\include\STM8S105K.inc
TIM3_CNTRL                            5329         no  WORD  Internal   ABS    391  private  text         0     0  c:\program files (x86)\stmicroelectronics\st_toolset\asm\include\STM8S105K.inc
TIM3_PSCR                             532A         no  WORD  Internal   ABS    393  private  text         0     0  c:\program files (x86)\stmicroelectronics\st_toolset\asm\include\STM8S105K.inc
TIM3_ARRH                             532B         no  WORD  Internal   ABS    395  private  text         0     0  c:\program files (x86)\stmicroelectronics\st_toolset\asm\include\STM8S105K.inc
TIM3_ARRL                             532C         no  WORD  Internal   ABS    397  private  text         0     0  c:\program files (x86)\stmicroelectronics\st_toolset\asm\include\STM8S105K.inc
TIM3_CCR1H                            532D         no  WORD  Internal   ABS    399  private  text         0     0  c:\program files (x86)\stmicroelectronics\st_toolset\asm\include\STM8S105K.inc
TIM3_CCR1L                            532E         no  WORD  Internal   ABS    401  private  text         0     0  c:\program files (x86)\stmicroelectronics\st_toolset\asm\include\STM8S105K.inc
TIM3_CCR2H                            532F         no  WORD  Internal   ABS    403  private  text         0     0  c:\program files (x86)\stmicroelectronics\st_toolset\asm\include\STM8S105K.inc
TIM3_CCR2L                            5330         no  WORD  Internal   ABS    405  private  text         0     0  c:\program files (x86)\stmicroelectronics\st_toolset\asm\include\STM8S105K.inc
TIM4_CR1                              5340         no  WORD  Internal   ABS    410  private  text         0     0  c:\program files (x86)\stmicroelectronics\st_toolset\asm\include\STM8S105K.inc
TIM4_IER                              5341         no  WORD  Internal   ABS    412  private  text         0     0  c:\program files (x86)\stmicroelectronics\st_toolset\asm\include\STM8S105K.inc
TIM4_SR                               5342         no  WORD  Internal   ABS    414  private  text         0     0  c:\program files (x86)\stmicroelectronics\st_toolset\asm\include\STM8S105K.inc
TIM4_EGR                              5343         no  WORD  Internal   ABS    416  private  text         0     0  c:\program files (x86)\stmicroelectronics\st_toolset\asm\include\STM8S105K.inc
TIM4_CNTR                             5344         no  WORD  Internal   ABS    418  private  text         0     0  c:\program files (x86)\stmicroelectronics\st_toolset\asm\include\STM8S105K.inc
TIM4_PSCR                             5345         no  WORD  Internal   ABS    420  private  text         0     0  c:\program files (x86)\stmicroelectronics\st_toolset\asm\include\STM8S105K.inc
TIM4_ARR                              5346         no  WORD  Internal   ABS    422  private  text         0     0  c:\program files (x86)\stmicroelectronics\st_toolset\asm\include\STM8S105K.inc
TARGET_QUEUE_BOTTOM                   0108         no  WORD  Internal   ABS     54  private  text         0     0  e:\stm8s\elevator\variable.inc
TEMP_TARGET_FLOOR_BUTTOM                13         no  BYTE  Internal   ABS     57  private  text         0     0  e:\stm8s\elevator\variable.inc
TEMP_TARGET_FLOOR_TOP                   1B         no  BYTE  Internal   ABS     58  private  text         0     0  e:\stm8s\elevator\variable.inc

UART2_SR                              5240         no  WORD  Internal   ABS    234  private  text         0     0  c:\program files (x86)\stmicroelectronics\st_toolset\asm\include\STM8S105K.inc
UART2_DR                              5241         no  WORD  Internal   ABS    236  private  text         0     0  c:\program files (x86)\stmicroelectronics\st_toolset\asm\include\STM8S105K.inc
UART2_BRR1                            5242         no  WORD  Internal   ABS    238  private  text         0     0  c:\program files (x86)\stmicroelectronics\st_toolset\asm\include\STM8S105K.inc
UART2_BRR2                            5243         no  WORD  Internal   ABS    240  private  text         0     0  c:\program files (x86)\stmicroelectronics\st_toolset\asm\include\STM8S105K.inc
UART2_CR1                             5244         no  WORD  Internal   ABS    242  private  text         0     0  c:\program files (x86)\stmicroelectronics\st_toolset\asm\include\STM8S105K.inc
UART2_CR2                             5245         no  WORD  Internal   ABS    244  private  text         0     0  c:\program files (x86)\stmicroelectronics\st_toolset\asm\include\STM8S105K.inc
UART2_CR3                             5246         no  WORD  Internal   ABS    246  private  text         0     0  c:\program files (x86)\stmicroelectronics\st_toolset\asm\include\STM8S105K.inc
UART2_CR4                             5247         no  WORD  Internal   ABS    248  private  text         0     0  c:\program files (x86)\stmicroelectronics\st_toolset\asm\include\STM8S105K.inc
UART2_CR5                             5248         no  WORD  Internal   ABS    250  private  text         0     0  c:\program files (x86)\stmicroelectronics\st_toolset\asm\include\STM8S105K.inc
UART2_CR6                             5249         no  WORD  Internal   ABS    252  private  text         0     0  c:\program files (x86)\stmicroelectronics\st_toolset\asm\include\STM8S105K.inc
UART2_GTR                             524A         no  WORD  Internal   ABS    254  private  text         0     0  c:\program files (x86)\stmicroelectronics\st_toolset\asm\include\STM8S105K.inc
UART2_PSCR                            524B         no  WORD  Internal   ABS    256  private  text         0     0  c:\program files (x86)\stmicroelectronics\st_toolset\asm\include\STM8S105K.inc

WWDG_CR                               50D1         no  WORD  Internal   ABS    154  private  text         0     0  c:\program files (x86)\stmicroelectronics\st_toolset\asm\include\STM8S105K.inc
WWDG_WR                               50D2         no  WORD  Internal   ABS    156  private  text         0     0  c:\program files (x86)\stmicroelectronics\st_toolset\asm\include\STM8S105K.inc
W_CUR_TARGET_PTR                        0C         no  BYTE  Internal   ABS     48  private  text         0     0  e:\stm8s\elevator\variable.inc
W_NEW_PTR                               0E         no  BYTE  Internal   ABS     49  private  text         0     0  e:\stm8s\elevator\variable.inc
W_TIMER3_HANDLER                        10         no  BYTE  Internal   ABS     62  private  text         0     0  e:\stm8s\elevator\variable.inc


321 labels
No errors on assembly of 'e:\stm8s\elevator\request.asm'